---
triple:          'arm64-apple-darwin'
binary-path:     '/Users/ray/code/siman/SimAnn/testcode'
relocations:
  - { offset: 0x52, size: 0x8, addend: 0x0, symName: __ZL3s64, symObjAddr: 0x9C1B0, symBinAddr: 0x10001C000, symSize: 0x0 }
  - { offset: 0x89, size: 0x8, addend: 0x0, symName: __ZL3s32, symObjAddr: 0x9C1D0, symBinAddr: 0x10001C020, symSize: 0x0 }
  - { offset: 0x4DDE, size: 0x8, addend: 0x0, symName: __ZNSt3__16chronomiB8ne180100IxNS_5ratioILl1ELl1000000000EEExS3_EENS_11common_typeIJNS0_8durationIT_T0_EENS5_IT1_T2_EEEE4typeERKS8_RKSB_, symObjAddr: 0x5164, symBinAddr: 0x100007024, symSize: 0x6C }
  - { offset: 0x5281, size: 0x8, addend: 0x0, symName: __ZNSt3__16chronomiB8ne180100INS0_12steady_clockENS0_8durationIxNS_5ratioILl1ELl1000000000EEEEES6_EENS_11common_typeIJT0_T1_EE4typeERKNS0_10time_pointIT_S8_EERKNSC_ISD_S9_EE, symObjAddr: 0x3410, symBinAddr: 0x1000052D0, symSize: 0x58 }
  - { offset: 0x53CA, size: 0x8, addend: 0x0, symName: __ZNSt3__16chrono13duration_castB8ne180100INS0_8durationIdNS_5ratioILl1ELl1EEEEExNS3_ILl1ELl1000000000EEELi0EEET_RKNS2_IT0_T1_EE, symObjAddr: 0x52A4, symBinAddr: 0x100007164, symSize: 0x30 }
  - { offset: 0x8ADB, size: 0x8, addend: 0x0, symName: __ZNSt3__124__put_character_sequenceB8ne180100IcNS_11char_traitsIcEEEERNS_13basic_ostreamIT_T0_EES7_PKS4_m, symObjAddr: 0x7E54, symBinAddr: 0x100009D14, symSize: 0x1EC }
  - { offset: 0xECE6, size: 0x8, addend: 0x0, symName: __ZNSt3__17advanceB8ne180100INS_21__tree_const_iteratorIiPNS_11__tree_nodeIiPvEElEEllvEEvRT_T0_, symObjAddr: 0x10AAC, symBinAddr: 0x10001296C, symSize: 0x38 }
  - { offset: 0x11DC9, size: 0x8, addend: 0x0, symName: __ZNSt3__17getlineB8ne180100IcNS_11char_traitsIcEENS_9allocatorIcEEEERNS_13basic_istreamIT_T0_EES9_RNS_12basic_stringIS6_S7_T1_EES6_, symObjAddr: 0x2714, symBinAddr: 0x1000045D4, symSize: 0x238 }
  - { offset: 0x11E87, size: 0x8, addend: 0x0, symName: __ZNSt3__1lsB8ne180100INS_11char_traitsIcEEEERNS_13basic_ostreamIcT_EES6_PKc, symObjAddr: 0x2ABC, symBinAddr: 0x10000497C, symSize: 0x48 }
  - { offset: 0x11ECD, size: 0x8, addend: 0x0, symName: __ZNSt3__14endlB8ne180100IcNS_11char_traitsIcEEEERNS_13basic_ostreamIT_T0_EES7_, symObjAddr: 0x2B30, symBinAddr: 0x1000049F0, symSize: 0x58 }
  - { offset: 0x125F8, size: 0x8, addend: 0x0, symName: __ZNSt3__1neB8ne180100ERKNS_21__tree_const_iteratorIiPNS_11__tree_nodeIiPvEElEES7_, symObjAddr: 0x31E4, symBinAddr: 0x1000050A4, symSize: 0x34 }
  - { offset: 0x12635, size: 0x8, addend: 0x0, symName: __ZNSt3__1neB8ne180100IPjEEbRKNS_11__wrap_iterIT_EES6_, symObjAddr: 0x32A0, symBinAddr: 0x100005160, symSize: 0x34 }
  - { offset: 0x12678, size: 0x8, addend: 0x0, symName: __ZNSt3__14findB8ne180100INS_21__tree_const_iteratorIiPNS_11__tree_nodeIiPvEElEEjEET_S7_S7_RKT0_, symObjAddr: 0x32EC, symBinAddr: 0x1000051AC, symSize: 0x80 }
  - { offset: 0x126E0, size: 0x8, addend: 0x0, symName: __ZNSt3__1neB8ne180100IPiEEbRKNS_11__wrap_iterIT_EES6_, symObjAddr: 0x36DC, symBinAddr: 0x10000559C, symSize: 0x34 }
  - { offset: 0x12723, size: 0x8, addend: 0x0, symName: __ZNSt3__14findB8ne180100INS_11__wrap_iterIPiEEjEET_S4_S4_RKT0_, symObjAddr: 0x3710, symBinAddr: 0x1000055D0, symSize: 0x78 }
  - { offset: 0x1278B, size: 0x8, addend: 0x0, symName: __ZNSt3__1neB8ne180100IPNS_6vectorIiNS_9allocatorIiEEEEEEbRKNS_11__wrap_iterIT_EESA_, symObjAddr: 0x388C, symBinAddr: 0x10000574C, symSize: 0x34 }
  - { offset: 0x127D3, size: 0x8, addend: 0x0, symName: __ZNSt3__16__math3expB8ne180100Ef, symObjAddr: 0x38F0, symBinAddr: 0x1000057B0, symSize: 0x24 }
  - { offset: 0x12844, size: 0x8, addend: 0x0, symName: __ZNSt3__15flushB8ne180100IcNS_11char_traitsIcEEEERNS_13basic_ostreamIT_T0_EES7_, symObjAddr: 0x3954, symBinAddr: 0x100005814, symSize: 0x28 }
  - { offset: 0x1288F, size: 0x8, addend: 0x0, symName: __ZNSt3__122__make_exception_guardB8ne180100INS_6vectorIjNS_9allocatorIjEEE16__destroy_vectorEEENS_28__exception_guard_exceptionsIT_EES7_, symObjAddr: 0x3DC0, symBinAddr: 0x100005C80, symSize: 0x40 }
  - { offset: 0x128C4, size: 0x8, addend: 0x0, symName: __ZNSt3__119__allocate_at_leastB8ne180100INS_9allocatorIjEEEENS_19__allocation_resultINS_16allocator_traitsIT_E7pointerEEERS5_m, symObjAddr: 0x40A8, symBinAddr: 0x100005F68, symSize: 0x40 }
  - { offset: 0x12907, size: 0x8, addend: 0x0, symName: __ZNSt3__13minB8ne180100ImEERKT_S3_S3_, symObjAddr: 0x414C, symBinAddr: 0x10000600C, symSize: 0x2C }
  - { offset: 0x12B4B, size: 0x8, addend: 0x0, symName: __ZNSt3__13minB8ne180100ImNS_6__lessIvvEEEERKT_S5_S5_T0_, symObjAddr: 0x41C0, symBinAddr: 0x100006080, symSize: 0x54 }
  - { offset: 0x12BED, size: 0x8, addend: 0x0, symName: __ZNSt3__120__throw_length_errorB8ne180100EPKc, symObjAddr: 0x4264, symBinAddr: 0x100006124, symSize: 0x64 }
  - { offset: 0x12C15, size: 0x8, addend: 0x0, symName: __ZNSt3__117__libcpp_allocateB8ne180100Emm, symObjAddr: 0x43CC, symBinAddr: 0x10000628C, symSize: 0x28 }
  - { offset: 0x12C52, size: 0x8, addend: 0x0, symName: __ZNSt3__121__libcpp_operator_newB8ne180100IJmEEEPvDpT_, symObjAddr: 0x43F4, symBinAddr: 0x1000062B4, symSize: 0x24 }
  - { offset: 0x12C8B, size: 0x8, addend: 0x0, symName: __ZNSt3__130__uninitialized_allocator_copyB8ne180100INS_9allocatorIjEEPjS3_S3_EET2_RT_T0_T1_S4_, symObjAddr: 0x44C4, symBinAddr: 0x100006384, symSize: 0x80 }
  - { offset: 0x12D28, size: 0x8, addend: 0x0, symName: __ZNSt3__114__unwrap_rangeB8ne180100IPjS1_EENS_4pairIT0_S3_EET_S5_, symObjAddr: 0x45B4, symBinAddr: 0x100006474, symSize: 0x60 }
  - { offset: 0x12D74, size: 0x8, addend: 0x0, symName: __ZNSt3__135__uninitialized_allocator_copy_implB8ne180100INS_9allocatorIjEEjjjLPv0EEEPT2_RT_PT0_S9_S5_, symObjAddr: 0x4614, symBinAddr: 0x1000064D4, symSize: 0x38 }
  - { offset: 0x12DF6, size: 0x8, addend: 0x0, symName: __ZNSt3__113__unwrap_iterB8ne180100IPjNS_18__unwrap_iter_implIS1_Lb1EEELi0EEEDTclsrT0_8__unwrapclsr3stdE7declvalIT_EEEES5_, symObjAddr: 0x464C, symBinAddr: 0x10000650C, symSize: 0x24 }
  - { offset: 0x12E3A, size: 0x8, addend: 0x0, symName: __ZNSt3__113__rewrap_iterB8ne180100IPjS1_NS_18__unwrap_iter_implIS1_Lb1EEEEET_S4_T0_, symObjAddr: 0x4670, symBinAddr: 0x100006530, symSize: 0x3C }
  - { offset: 0x12E8F, size: 0x8, addend: 0x0, symName: __ZNSt3__19make_pairB8ne180100IPjS1_EENS_4pairINS_18__unwrap_ref_decayIT_E4typeENS3_IT0_E4typeEEEOS4_OS7_, symObjAddr: 0x46AC, symBinAddr: 0x10000656C, symSize: 0x38 }
  - { offset: 0x12FE1, size: 0x8, addend: 0x0, symName: __ZNSt3__14copyB8ne180100IPjS1_EET0_T_S3_S2_, symObjAddr: 0x4754, symBinAddr: 0x100006614, symSize: 0x40 }
  - { offset: 0x1303B, size: 0x8, addend: 0x0, symName: __ZNSt3__16__copyB8ne180100INS_17_ClassicAlgPolicyEPjS2_S2_EENS_4pairIT0_T2_EES4_T1_S5_, symObjAddr: 0x4794, symBinAddr: 0x100006654, symSize: 0x44 }
  - { offset: 0x130A7, size: 0x8, addend: 0x0, symName: __ZNSt3__123__dispatch_copy_or_moveB8ne180100INS_17_ClassicAlgPolicyENS_11__copy_loopIS1_EENS_14__copy_trivialEPjS5_S5_EENS_4pairIT2_T4_EES7_T3_S8_, symObjAddr: 0x47D8, symBinAddr: 0x100006698, symSize: 0x44 }
  - { offset: 0x13125, size: 0x8, addend: 0x0, symName: __ZNSt3__121__unwrap_and_dispatchB8ne180100INS_10__overloadINS_11__copy_loopINS_17_ClassicAlgPolicyEEENS_14__copy_trivialEEEPjS7_S7_Li0EEENS_4pairIT0_T2_EES9_T1_SA_, symObjAddr: 0x481C, symBinAddr: 0x1000066DC, symSize: 0xB4 }
  - { offset: 0x13235, size: 0x8, addend: 0x0, symName: __ZNSt3__114__rewrap_rangeB8ne180100IPjS1_EET_S2_T0_, symObjAddr: 0x4918, symBinAddr: 0x1000067D8, symSize: 0x2C }
  - { offset: 0x13281, size: 0x8, addend: 0x0, symName: __ZNSt3__119__copy_trivial_implB8ne180100IjjEENS_4pairIPT_PT0_EES3_S3_S5_, symObjAddr: 0x4944, symBinAddr: 0x100006804, symSize: 0x80 }
  - { offset: 0x132E9, size: 0x8, addend: 0x0, symName: __ZNSt3__119__constexpr_memmoveB8ne180100IjjLi0EEEPT_S2_PT0_NS_15__element_countE, symObjAddr: 0x49C4, symBinAddr: 0x100006884, symSize: 0x64 }
  - { offset: 0x13357, size: 0x8, addend: 0x0, symName: __ZNSt3__19make_pairB8ne180100IRPjS1_EENS_4pairINS_18__unwrap_ref_decayIT_E4typeENS4_IT0_E4typeEEEOS5_OS8_, symObjAddr: 0x4A28, symBinAddr: 0x1000068E8, symSize: 0x38 }
  - { offset: 0x133FA, size: 0x8, addend: 0x0, symName: __ZNSt3__112__to_addressB8ne180100IjEEPT_S2_, symObjAddr: 0x4AF4, symBinAddr: 0x1000069B4, symSize: 0x14 }
  - { offset: 0x13430, size: 0x8, addend: 0x0, symName: __ZNSt3__119__libcpp_deallocateB8ne180100EPvmm, symObjAddr: 0x4E10, symBinAddr: 0x100006CD0, symSize: 0x30 }
  - { offset: 0x13479, size: 0x8, addend: 0x0, symName: __ZNSt3__127__do_deallocate_handle_sizeB8ne180100IJEEEvPvmDpT_, symObjAddr: 0x4E40, symBinAddr: 0x100006D00, symSize: 0x28 }
  - { offset: 0x134B8, size: 0x8, addend: 0x0, symName: __ZNSt3__124__libcpp_operator_deleteB8ne180100IJPvEEEvDpT_, symObjAddr: 0x4E68, symBinAddr: 0x100006D28, symSize: 0x24 }
  - { offset: 0x134ED, size: 0x8, addend: 0x0, symName: __ZNSt3__118__constexpr_strlenB8ne180100EPKc, symObjAddr: 0x50E0, symBinAddr: 0x100006FA0, symSize: 0x24 }
  - { offset: 0x13519, size: 0x8, addend: 0x0, symName: __ZNSt3__1eqB8ne180100IPjEEbRKNS_11__wrap_iterIT_EES6_, symObjAddr: 0x5104, symBinAddr: 0x100006FC4, symSize: 0x48 }
  - { offset: 0x1355C, size: 0x8, addend: 0x0, symName: __ZNSt3__1eqB8ne180100IPiEEbRKNS_11__wrap_iterIT_EES6_, symObjAddr: 0x5378, symBinAddr: 0x100007238, symSize: 0x48 }
  - { offset: 0x1359F, size: 0x8, addend: 0x0, symName: __ZNSt3__1eqB8ne180100IPNS_6vectorIiNS_9allocatorIiEEEEEEbRKNS_11__wrap_iterIT_EESA_, symObjAddr: 0x53D8, symBinAddr: 0x100007298, symSize: 0x48 }
  - { offset: 0x135E3, size: 0x8, addend: 0x0, symName: __ZNSt3__112__to_addressB8ne180100I9site_typeEEPT_S3_, symObjAddr: 0x5908, symBinAddr: 0x1000077C8, symSize: 0x14 }
  - { offset: 0x13619, size: 0x8, addend: 0x0, symName: __ZNSt3__112__to_addressB8ne180100IZ4mainE4LinkEEPT_S3_, symObjAddr: 0x5F84, symBinAddr: 0x100007E44, symSize: 0x14 }
  - { offset: 0x1364F, size: 0x8, addend: 0x0, symName: __ZNSt3__119__allocate_at_leastB8ne180100INS_9allocatorIZ4mainE4LinkEEEENS_19__allocation_resultINS_16allocator_traitsIT_E7pointerEEERS6_m, symObjAddr: 0x6428, symBinAddr: 0x1000082E8, symSize: 0x40 }
  - { offset: 0x13693, size: 0x8, addend: 0x0, symName: __ZNSt3__142__uninitialized_allocator_move_if_noexceptB8ne180100INS_9allocatorIZ4mainE4LinkEENS_16reverse_iteratorIPS2_EES6_S2_vEET1_RT_T0_SA_S7_, symObjAddr: 0x65F0, symBinAddr: 0x1000084B0, symSize: 0x78 }
  - { offset: 0x13712, size: 0x8, addend: 0x0, symName: __ZNSt3__14swapB8ne180100IPZ4mainE4LinkEENS_9enable_ifIXaasr21is_move_constructibleIT_EE5valuesr18is_move_assignableIS4_EE5valueEvE4typeERS4_S7_, symObjAddr: 0x66B4, symBinAddr: 0x100008574, symSize: 0x3C }
  - { offset: 0x13764, size: 0x8, addend: 0x0, symName: __ZNSt3__14moveB8ne180100INS_16reverse_iteratorIPZ4mainE4LinkEES4_EET0_T_S6_S5_, symObjAddr: 0x672C, symBinAddr: 0x1000085EC, symSize: 0x78 }
  - { offset: 0x137BF, size: 0x8, addend: 0x0, symName: __ZNSt3__16__moveB8ne180100INS_17_ClassicAlgPolicyENS_16reverse_iteratorIPZ4mainE4LinkEES5_S5_EENS_4pairIT0_T2_EES7_T1_S8_, symObjAddr: 0x67A4, symBinAddr: 0x100008664, symSize: 0x64 }
  - { offset: 0x1382C, size: 0x8, addend: 0x0, symName: __ZNSt3__123__dispatch_copy_or_moveB8ne180100INS_17_ClassicAlgPolicyENS_11__move_loopIS1_EENS_14__move_trivialENS_16reverse_iteratorIPZ4mainE4LinkEES8_S8_EENS_4pairIT2_T4_EESA_T3_SB_, symObjAddr: 0x6808, symBinAddr: 0x1000086C8, symSize: 0x64 }
  - { offset: 0x138AB, size: 0x8, addend: 0x0, symName: __ZNSt3__121__unwrap_and_dispatchB8ne180100INS_10__overloadINS_11__move_loopINS_17_ClassicAlgPolicyEEENS_14__move_trivialEEENS_16reverse_iteratorIPZ4mainE4LinkEESA_SA_Li0EEENS_4pairIT0_T2_EESC_T1_SD_, symObjAddr: 0x686C, symBinAddr: 0x10000872C, symSize: 0x12C }
  - { offset: 0x1393C, size: 0x8, addend: 0x0, symName: __ZNSt3__114__unwrap_rangeB8ne180100INS_16reverse_iteratorIPZ4mainE4LinkEES4_EENS_4pairIT0_S6_EET_S8_, symObjAddr: 0x6998, symBinAddr: 0x100008858, symSize: 0x84 }
  - { offset: 0x13B75, size: 0x8, addend: 0x0, symName: __ZNSt3__113__unwrap_iterB8ne180100INS_16reverse_iteratorIPZ4mainE4LinkEENS_18__unwrap_iter_implIS4_Lb0EEELi0EEEDTclsrT0_8__unwrapclsr3stdE7declvalIT_EEEES8_, symObjAddr: 0x6ABC, symBinAddr: 0x10000897C, symSize: 0x44 }
  - { offset: 0x13BBA, size: 0x8, addend: 0x0, symName: __ZNSt3__19make_pairB8ne180100INS_16reverse_iteratorIPZ4mainE4LinkEES4_EENS_4pairINS_18__unwrap_ref_decayIT_E4typeENS6_IT0_E4typeEEEOS7_OSA_, symObjAddr: 0x6B00, symBinAddr: 0x1000089C0, symSize: 0x38 }
  - { offset: 0x13C0A, size: 0x8, addend: 0x0, symName: __ZNSt3__114__rewrap_rangeB8ne180100INS_16reverse_iteratorIPZ4mainE4LinkEES4_EET_S5_T0_, symObjAddr: 0x6B38, symBinAddr: 0x1000089F8, symSize: 0x5C }
  - { offset: 0x13C57, size: 0x8, addend: 0x0, symName: __ZNSt3__113__rewrap_iterB8ne180100INS_16reverse_iteratorIPZ4mainE4LinkEES4_NS_18__unwrap_iter_implIS4_Lb0EEEEET_S7_T0_, symObjAddr: 0x6B94, symBinAddr: 0x100008A54, symSize: 0x74 }
  - { offset: 0x13CAD, size: 0x8, addend: 0x0, symName: __ZNSt3__1neB8ne180100IPZ4mainE4LinkS2_EEbRKNS_16reverse_iteratorIT_EERKNS3_IT0_EE, symObjAddr: 0x6C08, symBinAddr: 0x100008AC8, symSize: 0x48 }
  - { offset: 0x140A4, size: 0x8, addend: 0x0, symName: __ZNSt3__13maxB8ne180100ImEERKT_S3_S3_, symObjAddr: 0x7AE4, symBinAddr: 0x1000099A4, symSize: 0x2C }
  - { offset: 0x140E7, size: 0x8, addend: 0x0, symName: __ZNSt3__13maxB8ne180100ImNS_6__lessIvvEEEERKT_S5_S5_T0_, symObjAddr: 0x7B10, symBinAddr: 0x1000099D0, symSize: 0x54 }
  - { offset: 0x14141, size: 0x8, addend: 0x0, symName: __ZNSt3__116__pad_and_outputB8ne180100IcNS_11char_traitsIcEEEENS_19ostreambuf_iteratorIT_T0_EES6_PKS4_S8_S8_RNS_8ios_baseES4_, symObjAddr: 0x805C, symBinAddr: 0x100009F1C, symSize: 0x240 }
  - { offset: 0x14211, size: 0x8, addend: 0x0, symName: __ZNSt3__112__to_addressB8ne180100IKcEEPT_S3_, symObjAddr: 0x84A0, symBinAddr: 0x10000A360, symSize: 0x14 }
  - { offset: 0x14279, size: 0x8, addend: 0x0, symName: __ZNSt3__19use_facetB8ne180100INS_5ctypeIcEEEERKT_RKNS_6localeE, symObjAddr: 0x8644, symBinAddr: 0x10000A504, symSize: 0x2C }
  - { offset: 0x14746, size: 0x8, addend: 0x0, symName: __ZNSt3__119__allocate_at_leastB8ne180100INS_9allocatorI9site_typeEEEENS_19__allocation_resultINS_16allocator_traitsIT_E7pointerEEERS6_m, symObjAddr: 0x8A64, symBinAddr: 0x10000A924, symSize: 0x40 }
  - { offset: 0x14789, size: 0x8, addend: 0x0, symName: __ZNSt3__142__uninitialized_allocator_move_if_noexceptB8ne180100INS_9allocatorI9site_typeEENS_16reverse_iteratorIPS2_EES6_S6_EET2_RT_T0_T1_S7_, symObjAddr: 0x8C30, symBinAddr: 0x10000AAF0, symSize: 0x12C }
  - { offset: 0x1482A, size: 0x8, addend: 0x0, symName: __ZNSt3__14swapB8ne180100IP9site_typeEENS_9enable_ifIXaasr21is_move_constructibleIT_EE5valuesr18is_move_assignableIS4_EE5valueEvE4typeERS4_S7_, symObjAddr: 0x8DA8, symBinAddr: 0x10000AC68, symSize: 0x3C }
  - { offset: 0x1487B, size: 0x8, addend: 0x0, symName: __ZNSt3__122__make_exception_guardB8ne180100INS_29_AllocatorDestroyRangeReverseINS_9allocatorI9site_typeEENS_16reverse_iteratorIPS3_EEEEEENS_28__exception_guard_exceptionsIT_EESA_, symObjAddr: 0x8E20, symBinAddr: 0x10000ACE0, symSize: 0x4C }
  - { offset: 0x148B1, size: 0x8, addend: 0x0, symName: __ZNSt3__1neB8ne180100IP9site_typeS2_EEbRKNS_16reverse_iteratorIT_EERKNS3_IT0_EE, symObjAddr: 0x8EB0, symBinAddr: 0x10000AD70, symSize: 0x48 }
  - { offset: 0x148FD, size: 0x8, addend: 0x0, symName: __ZNSt3__112__to_addressB8ne180100INS_16reverse_iteratorIP9site_typeEEvEEu7__decayIDTclsr19__to_address_helperIT_EE6__callclsr3stdE7declvalIRKS5_EEEEES7_, symObjAddr: 0x8F2C, symBinAddr: 0x10000ADEC, symSize: 0x24 }
  - { offset: 0x1495D, size: 0x8, addend: 0x0, symName: __ZNSt3__119__allocator_destroyB8ne180100INS_9allocatorI9site_typeEENS_16reverse_iteratorINS4_IPS2_EEEES7_EEvRT_T0_T1_, symObjAddr: 0x9394, symBinAddr: 0x10000B254, symSize: 0x70 }
  - { offset: 0x149C2, size: 0x8, addend: 0x0, symName: __ZNSt3__1neB8ne180100INS_16reverse_iteratorIP9site_typeEES4_EEbRKNS1_IT_EERKNS1_IT0_EE, symObjAddr: 0x9440, symBinAddr: 0x10000B300, symSize: 0x60 }
  - { offset: 0x14A0E, size: 0x8, addend: 0x0, symName: __ZNSt3__112__to_addressB8ne180100INS_16reverse_iteratorINS1_IP9site_typeEEEEvEEu7__decayIDTclsr19__to_address_helperIT_EE6__callclsr3stdE7declvalIRKS6_EEEEES8_, symObjAddr: 0x94A0, symBinAddr: 0x10000B360, symSize: 0x24 }
  - { offset: 0x14A6D, size: 0x8, addend: 0x0, symName: __ZNSt3__142__uninitialized_allocator_move_if_noexceptB8ne180100INS_9allocatorIjEENS_16reverse_iteratorIPjEES5_jvEET1_RT_T0_S9_S6_, symObjAddr: 0xA48C, symBinAddr: 0x10000C34C, symSize: 0x78 }
  - { offset: 0x14AEC, size: 0x8, addend: 0x0, symName: __ZNSt3__14swapB8ne180100IPjEENS_9enable_ifIXaasr21is_move_constructibleIT_EE5valuesr18is_move_assignableIS3_EE5valueEvE4typeERS3_S6_, symObjAddr: 0xA550, symBinAddr: 0x10000C410, symSize: 0x3C }
  - { offset: 0x14B3D, size: 0x8, addend: 0x0, symName: __ZNSt3__14moveB8ne180100INS_16reverse_iteratorIPjEES3_EET0_T_S5_S4_, symObjAddr: 0xA58C, symBinAddr: 0x10000C44C, symSize: 0x78 }
  - { offset: 0x14B97, size: 0x8, addend: 0x0, symName: __ZNSt3__16__moveB8ne180100INS_17_ClassicAlgPolicyENS_16reverse_iteratorIPjEES4_S4_EENS_4pairIT0_T2_EES6_T1_S7_, symObjAddr: 0xA604, symBinAddr: 0x10000C4C4, symSize: 0x64 }
  - { offset: 0x14C03, size: 0x8, addend: 0x0, symName: __ZNSt3__123__dispatch_copy_or_moveB8ne180100INS_17_ClassicAlgPolicyENS_11__move_loopIS1_EENS_14__move_trivialENS_16reverse_iteratorIPjEES7_S7_EENS_4pairIT2_T4_EES9_T3_SA_, symObjAddr: 0xA668, symBinAddr: 0x10000C528, symSize: 0x64 }
  - { offset: 0x14C81, size: 0x8, addend: 0x0, symName: __ZNSt3__121__unwrap_and_dispatchB8ne180100INS_10__overloadINS_11__move_loopINS_17_ClassicAlgPolicyEEENS_14__move_trivialEEENS_16reverse_iteratorIPjEES9_S9_Li0EEENS_4pairIT0_T2_EESB_T1_SC_, symObjAddr: 0xA6CC, symBinAddr: 0x10000C58C, symSize: 0x12C }
  - { offset: 0x14D11, size: 0x8, addend: 0x0, symName: __ZNSt3__114__unwrap_rangeB8ne180100INS_16reverse_iteratorIPjEES3_EENS_4pairIT0_S5_EET_S7_, symObjAddr: 0xA7F8, symBinAddr: 0x10000C6B8, symSize: 0x84 }
  - { offset: 0x14E31, size: 0x8, addend: 0x0, symName: __ZNSt3__113__unwrap_iterB8ne180100INS_16reverse_iteratorIPjEENS_18__unwrap_iter_implIS3_Lb0EEELi0EEEDTclsrT0_8__unwrapclsr3stdE7declvalIT_EEEES7_, symObjAddr: 0xA91C, symBinAddr: 0x10000C7DC, symSize: 0x44 }
  - { offset: 0x14E75, size: 0x8, addend: 0x0, symName: __ZNSt3__19make_pairB8ne180100INS_16reverse_iteratorIPjEES3_EENS_4pairINS_18__unwrap_ref_decayIT_E4typeENS5_IT0_E4typeEEEOS6_OS9_, symObjAddr: 0xA960, symBinAddr: 0x10000C820, symSize: 0x38 }
  - { offset: 0x14EC4, size: 0x8, addend: 0x0, symName: __ZNSt3__114__rewrap_rangeB8ne180100INS_16reverse_iteratorIPjEES3_EET_S4_T0_, symObjAddr: 0xA998, symBinAddr: 0x10000C858, symSize: 0x5C }
  - { offset: 0x14F10, size: 0x8, addend: 0x0, symName: __ZNSt3__113__rewrap_iterB8ne180100INS_16reverse_iteratorIPjEES3_NS_18__unwrap_iter_implIS3_Lb0EEEEET_S6_T0_, symObjAddr: 0xA9F4, symBinAddr: 0x10000C8B4, symSize: 0x74 }
  - { offset: 0x14F65, size: 0x8, addend: 0x0, symName: __ZNSt3__1neB8ne180100IPjS1_EEbRKNS_16reverse_iteratorIT_EERKNS2_IT0_EE, symObjAddr: 0xAA68, symBinAddr: 0x10000C928, symSize: 0x48 }
  - { offset: 0x15004, size: 0x8, addend: 0x0, symName: __ZNSt3__122__make_exception_guardB8ne180100INS_6vectorI9site_typeNS_9allocatorIS2_EEE16__destroy_vectorEEENS_28__exception_guard_exceptionsIT_EES8_, symObjAddr: 0xB1C0, symBinAddr: 0x10000D080, symSize: 0x40 }
  - { offset: 0x15039, size: 0x8, addend: 0x0, symName: __ZNSt3__130__uninitialized_allocator_copyB8ne180100INS_9allocatorI9site_typeEEPS2_S4_S4_EET2_RT_T0_T1_S5_, symObjAddr: 0xB3E0, symBinAddr: 0x10000D2A0, symSize: 0x80 }
  - { offset: 0x150D6, size: 0x8, addend: 0x0, symName: __ZNSt3__114__unwrap_rangeB8ne180100IP9site_typeS2_EENS_4pairIT0_S4_EET_S6_, symObjAddr: 0xB460, symBinAddr: 0x10000D320, symSize: 0x60 }
  - { offset: 0x15122, size: 0x8, addend: 0x0, symName: __ZNSt3__135__uninitialized_allocator_copy_implB8ne180100INS_9allocatorI9site_typeEEPS2_S4_S4_EET2_RT_T0_T1_S5_, symObjAddr: 0xB4C0, symBinAddr: 0x10000D380, symSize: 0xF4 }
  - { offset: 0x151C0, size: 0x8, addend: 0x0, symName: __ZNSt3__113__unwrap_iterB8ne180100IP9site_typeNS_18__unwrap_iter_implIS2_Lb1EEELi0EEEDTclsrT0_8__unwrapclsr3stdE7declvalIT_EEEES6_, symObjAddr: 0xB5B4, symBinAddr: 0x10000D474, symSize: 0x24 }
  - { offset: 0x15204, size: 0x8, addend: 0x0, symName: __ZNSt3__113__rewrap_iterB8ne180100IP9site_typeS2_NS_18__unwrap_iter_implIS2_Lb1EEEEET_S5_T0_, symObjAddr: 0xB5D8, symBinAddr: 0x10000D498, symSize: 0x3C }
  - { offset: 0x15259, size: 0x8, addend: 0x0, symName: __ZNSt3__19make_pairB8ne180100IP9site_typeS2_EENS_4pairINS_18__unwrap_ref_decayIT_E4typeENS4_IT0_E4typeEEEOS5_OS8_, symObjAddr: 0xB614, symBinAddr: 0x10000D4D4, symSize: 0x38 }
  - { offset: 0x1537C, size: 0x8, addend: 0x0, symName: __ZNSt3__122__make_exception_guardB8ne180100INS_29_AllocatorDestroyRangeReverseINS_9allocatorI9site_typeEEPS3_EEEENS_28__exception_guard_exceptionsIT_EES8_, symObjAddr: 0xB6BC, symBinAddr: 0x10000D57C, symSize: 0x4C }
  - { offset: 0x153B3, size: 0x8, addend: 0x0, symName: __ZNSt3__119__allocator_destroyB8ne180100INS_9allocatorI9site_typeEENS_16reverse_iteratorIPS2_EES6_EEvRT_T0_T1_, symObjAddr: 0xB94C, symBinAddr: 0x10000D80C, symSize: 0x70 }
  - { offset: 0x1546A, size: 0x8, addend: 0x0, symName: __ZNSt3__112__to_addressB8ne180100IiEEPT_S2_, symObjAddr: 0xBE84, symBinAddr: 0x10000DD44, symSize: 0x14 }
  - { offset: 0x154A0, size: 0x8, addend: 0x0, symName: __ZNSt3__112__to_addressB8ne180100IdEEPT_S2_, symObjAddr: 0xC388, symBinAddr: 0x10000E248, symSize: 0x14 }
  - { offset: 0x15509, size: 0x8, addend: 0x0, symName: __ZNSt3__112__destroy_atB8ne180100IiLi0EEEvPT_, symObjAddr: 0xCA20, symBinAddr: 0x10000E8E0, symSize: 0x10 }
  - { offset: 0x15540, size: 0x8, addend: 0x0, symName: __ZNSt3__119__allocate_at_leastB8ne180100INS_9allocatorIdEEEENS_19__allocation_resultINS_16allocator_traitsIT_E7pointerEEERS5_m, symObjAddr: 0xD254, symBinAddr: 0x10000F114, symSize: 0x40 }
  - { offset: 0x15583, size: 0x8, addend: 0x0, symName: __ZNSt3__142__uninitialized_allocator_move_if_noexceptB8ne180100INS_9allocatorIdEENS_16reverse_iteratorIPdEES5_dvEET1_RT_T0_S9_S6_, symObjAddr: 0xD408, symBinAddr: 0x10000F2C8, symSize: 0x78 }
  - { offset: 0x15602, size: 0x8, addend: 0x0, symName: __ZNSt3__14swapB8ne180100IPdEENS_9enable_ifIXaasr21is_move_constructibleIT_EE5valuesr18is_move_assignableIS3_EE5valueEvE4typeERS3_S6_, symObjAddr: 0xD4CC, symBinAddr: 0x10000F38C, symSize: 0x3C }
  - { offset: 0x15653, size: 0x8, addend: 0x0, symName: __ZNSt3__14moveB8ne180100INS_16reverse_iteratorIPdEES3_EET0_T_S5_S4_, symObjAddr: 0xD51C, symBinAddr: 0x10000F3DC, symSize: 0x78 }
  - { offset: 0x156AD, size: 0x8, addend: 0x0, symName: __ZNSt3__16__moveB8ne180100INS_17_ClassicAlgPolicyENS_16reverse_iteratorIPdEES4_S4_EENS_4pairIT0_T2_EES6_T1_S7_, symObjAddr: 0xD594, symBinAddr: 0x10000F454, symSize: 0x64 }
  - { offset: 0x15719, size: 0x8, addend: 0x0, symName: __ZNSt3__123__dispatch_copy_or_moveB8ne180100INS_17_ClassicAlgPolicyENS_11__move_loopIS1_EENS_14__move_trivialENS_16reverse_iteratorIPdEES7_S7_EENS_4pairIT2_T4_EES9_T3_SA_, symObjAddr: 0xD5F8, symBinAddr: 0x10000F4B8, symSize: 0x64 }
  - { offset: 0x15797, size: 0x8, addend: 0x0, symName: __ZNSt3__121__unwrap_and_dispatchB8ne180100INS_10__overloadINS_11__move_loopINS_17_ClassicAlgPolicyEEENS_14__move_trivialEEENS_16reverse_iteratorIPdEES9_S9_Li0EEENS_4pairIT0_T2_EESB_T1_SC_, symObjAddr: 0xD65C, symBinAddr: 0x10000F51C, symSize: 0x12C }
  - { offset: 0x15827, size: 0x8, addend: 0x0, symName: __ZNSt3__114__unwrap_rangeB8ne180100INS_16reverse_iteratorIPdEES3_EENS_4pairIT0_S5_EET_S7_, symObjAddr: 0xD788, symBinAddr: 0x10000F648, symSize: 0x84 }
  - { offset: 0x15947, size: 0x8, addend: 0x0, symName: __ZNSt3__113__unwrap_iterB8ne180100INS_16reverse_iteratorIPdEENS_18__unwrap_iter_implIS3_Lb0EEELi0EEEDTclsrT0_8__unwrapclsr3stdE7declvalIT_EEEES7_, symObjAddr: 0xD8AC, symBinAddr: 0x10000F76C, symSize: 0x44 }
  - { offset: 0x1598B, size: 0x8, addend: 0x0, symName: __ZNSt3__19make_pairB8ne180100INS_16reverse_iteratorIPdEES3_EENS_4pairINS_18__unwrap_ref_decayIT_E4typeENS5_IT0_E4typeEEEOS6_OS9_, symObjAddr: 0xD8F0, symBinAddr: 0x10000F7B0, symSize: 0x38 }
  - { offset: 0x159DA, size: 0x8, addend: 0x0, symName: __ZNSt3__114__rewrap_rangeB8ne180100INS_16reverse_iteratorIPdEES3_EET_S4_T0_, symObjAddr: 0xD928, symBinAddr: 0x10000F7E8, symSize: 0x5C }
  - { offset: 0x15A26, size: 0x8, addend: 0x0, symName: __ZNSt3__113__rewrap_iterB8ne180100INS_16reverse_iteratorIPdEES3_NS_18__unwrap_iter_implIS3_Lb0EEEEET_S6_T0_, symObjAddr: 0xD984, symBinAddr: 0x10000F844, symSize: 0x74 }
  - { offset: 0x15A7B, size: 0x8, addend: 0x0, symName: __ZNSt3__1neB8ne180100IPdS1_EEbRKNS_16reverse_iteratorIT_EERKNS2_IT0_EE, symObjAddr: 0xD9F8, symBinAddr: 0x10000F8B8, symSize: 0x48 }
  - { offset: 0x15B1A, size: 0x8, addend: 0x0, symName: __ZNSt3__119__allocate_at_leastB8ne180100INS_9allocatorIiEEEENS_19__allocation_resultINS_16allocator_traitsIT_E7pointerEEERS5_m, symObjAddr: 0xE4E0, symBinAddr: 0x1000103A0, symSize: 0x40 }
  - { offset: 0x15B5D, size: 0x8, addend: 0x0, symName: __ZNSt3__142__uninitialized_allocator_move_if_noexceptB8ne180100INS_9allocatorIiEENS_16reverse_iteratorIPiEES5_ivEET1_RT_T0_S9_S6_, symObjAddr: 0xE694, symBinAddr: 0x100010554, symSize: 0x78 }
  - { offset: 0x15BDC, size: 0x8, addend: 0x0, symName: __ZNSt3__14swapB8ne180100IPiEENS_9enable_ifIXaasr21is_move_constructibleIT_EE5valuesr18is_move_assignableIS3_EE5valueEvE4typeERS3_S6_, symObjAddr: 0xE758, symBinAddr: 0x100010618, symSize: 0x3C }
  - { offset: 0x15C2D, size: 0x8, addend: 0x0, symName: __ZNSt3__14moveB8ne180100INS_16reverse_iteratorIPiEES3_EET0_T_S5_S4_, symObjAddr: 0xE7A8, symBinAddr: 0x100010668, symSize: 0x78 }
  - { offset: 0x15C87, size: 0x8, addend: 0x0, symName: __ZNSt3__16__moveB8ne180100INS_17_ClassicAlgPolicyENS_16reverse_iteratorIPiEES4_S4_EENS_4pairIT0_T2_EES6_T1_S7_, symObjAddr: 0xE820, symBinAddr: 0x1000106E0, symSize: 0x64 }
  - { offset: 0x15CF3, size: 0x8, addend: 0x0, symName: __ZNSt3__123__dispatch_copy_or_moveB8ne180100INS_17_ClassicAlgPolicyENS_11__move_loopIS1_EENS_14__move_trivialENS_16reverse_iteratorIPiEES7_S7_EENS_4pairIT2_T4_EES9_T3_SA_, symObjAddr: 0xE884, symBinAddr: 0x100010744, symSize: 0x64 }
  - { offset: 0x15D71, size: 0x8, addend: 0x0, symName: __ZNSt3__121__unwrap_and_dispatchB8ne180100INS_10__overloadINS_11__move_loopINS_17_ClassicAlgPolicyEEENS_14__move_trivialEEENS_16reverse_iteratorIPiEES9_S9_Li0EEENS_4pairIT0_T2_EESB_T1_SC_, symObjAddr: 0xE8E8, symBinAddr: 0x1000107A8, symSize: 0x12C }
  - { offset: 0x15E01, size: 0x8, addend: 0x0, symName: __ZNSt3__114__unwrap_rangeB8ne180100INS_16reverse_iteratorIPiEES3_EENS_4pairIT0_S5_EET_S7_, symObjAddr: 0xEA14, symBinAddr: 0x1000108D4, symSize: 0x84 }
  - { offset: 0x15F21, size: 0x8, addend: 0x0, symName: __ZNSt3__113__unwrap_iterB8ne180100INS_16reverse_iteratorIPiEENS_18__unwrap_iter_implIS3_Lb0EEELi0EEEDTclsrT0_8__unwrapclsr3stdE7declvalIT_EEEES7_, symObjAddr: 0xEB38, symBinAddr: 0x1000109F8, symSize: 0x44 }
  - { offset: 0x15F65, size: 0x8, addend: 0x0, symName: __ZNSt3__19make_pairB8ne180100INS_16reverse_iteratorIPiEES3_EENS_4pairINS_18__unwrap_ref_decayIT_E4typeENS5_IT0_E4typeEEEOS6_OS9_, symObjAddr: 0xEB7C, symBinAddr: 0x100010A3C, symSize: 0x38 }
  - { offset: 0x15FB4, size: 0x8, addend: 0x0, symName: __ZNSt3__114__rewrap_rangeB8ne180100INS_16reverse_iteratorIPiEES3_EET_S4_T0_, symObjAddr: 0xEBB4, symBinAddr: 0x100010A74, symSize: 0x5C }
  - { offset: 0x16000, size: 0x8, addend: 0x0, symName: __ZNSt3__113__rewrap_iterB8ne180100INS_16reverse_iteratorIPiEES3_NS_18__unwrap_iter_implIS3_Lb0EEEEET_S6_T0_, symObjAddr: 0xEC10, symBinAddr: 0x100010AD0, symSize: 0x74 }
  - { offset: 0x16055, size: 0x8, addend: 0x0, symName: __ZNSt3__1neB8ne180100IPiS1_EEbRKNS_16reverse_iteratorIT_EERKNS2_IT0_EE, symObjAddr: 0xEC84, symBinAddr: 0x100010B44, symSize: 0x48 }
  - { offset: 0x16113, size: 0x8, addend: 0x0, symName: __ZNSt3__127__tree_balance_after_insertB8ne180100IPNS_16__tree_node_baseIPvEEEEvT_S5_, symObjAddr: 0xFA5C, symBinAddr: 0x10001191C, symSize: 0x32C }
  - { offset: 0x16192, size: 0x8, addend: 0x0, symName: __ZNSt3__120__tree_is_left_childB8ne180100IPNS_16__tree_node_baseIPvEEEEbT_, symObjAddr: 0xFDC8, symBinAddr: 0x100011C88, symSize: 0x2C }
  - { offset: 0x161C7, size: 0x8, addend: 0x0, symName: __ZNSt3__118__tree_left_rotateB8ne180100IPNS_16__tree_node_baseIPvEEEEvT_, symObjAddr: 0xFDF4, symBinAddr: 0x100011CB4, symSize: 0xD8 }
  - { offset: 0x16207, size: 0x8, addend: 0x0, symName: __ZNSt3__119__tree_right_rotateB8ne180100IPNS_16__tree_node_baseIPvEEEEvT_, symObjAddr: 0xFECC, symBinAddr: 0x100011D8C, symSize: 0xCC }
  - { offset: 0x1624A, size: 0x8, addend: 0x0, symName: __ZNSt3__1eqB8ne180100ERKNS_21__tree_const_iteratorIiPNS_11__tree_nodeIiPvEElEES7_, symObjAddr: 0x10928, symBinAddr: 0x1000127E8, symSize: 0x30 }
  - { offset: 0x16287, size: 0x8, addend: 0x0, symName: __ZNSt3__14nextB8ne180100INS_21__tree_const_iteratorIiPNS_11__tree_nodeIiPvEElEELi0EEET_S7_NS_15iterator_traitsIS7_E15difference_typeE, symObjAddr: 0x10990, symBinAddr: 0x100012850, symSize: 0x3C }
  - { offset: 0x162D0, size: 0x8, addend: 0x0, symName: __ZNSt3__116__tree_prev_iterB8ne180100IPNS_16__tree_node_baseIPvEEPNS_15__tree_end_nodeIS4_EEEET_T0_, symObjAddr: 0x109E4, symBinAddr: 0x1000128A4, symSize: 0x88 }
  - { offset: 0x1631D, size: 0x8, addend: 0x0, symName: __ZNSt3__110__tree_maxB8ne180100IPNS_16__tree_node_baseIPvEEEET_S5_, symObjAddr: 0x10A6C, symBinAddr: 0x10001292C, symSize: 0x40 }
  - { offset: 0x16353, size: 0x8, addend: 0x0, symName: __ZNSt3__121__convert_to_integralB8ne180100El, symObjAddr: 0x10AE4, symBinAddr: 0x1000129A4, symSize: 0x14 }
  - { offset: 0x1637F, size: 0x8, addend: 0x0, symName: __ZNSt3__19__advanceB8ne180100INS_21__tree_const_iteratorIiPNS_11__tree_nodeIiPvEElEEEEvRT_NS_15iterator_traitsIS7_E15difference_typeENS_26bidirectional_iterator_tagE, symObjAddr: 0x10AF8, symBinAddr: 0x1000129B8, symSize: 0xA4 }
  - { offset: 0x163C9, size: 0x8, addend: 0x0, symName: __ZNSt3__116__tree_next_iterB8ne180100IPNS_15__tree_end_nodeIPNS_16__tree_node_baseIPvEEEES5_EET_T0_, symObjAddr: 0x10B9C, symBinAddr: 0x100012A5C, symSize: 0x80 }
  - { offset: 0x16408, size: 0x8, addend: 0x0, symName: __ZNSt3__110__tree_minB8ne180100IPNS_16__tree_node_baseIPvEEEET_S5_, symObjAddr: 0x10C1C, symBinAddr: 0x100012ADC, symSize: 0x40 }
  - { offset: 0x1643D, size: 0x8, addend: 0x0, symName: __ZNSt3__113__rewrap_iterB8ne180100INS_21__tree_const_iteratorIiPNS_11__tree_nodeIiPvEElEES6_NS_18__unwrap_iter_implIS6_Lb0EEEEET_S9_T0_, symObjAddr: 0x10D40, symBinAddr: 0x100012C00, symSize: 0x54 }
  - { offset: 0x16492, size: 0x8, addend: 0x0, symName: __ZNSt3__111__find_implB8ne180100INS_21__tree_const_iteratorIiPNS_11__tree_nodeIiPvEElEES6_jNS_10__identityEEET_S8_T0_RKT1_RT2_, symObjAddr: 0x10D94, symBinAddr: 0x100012C54, symSize: 0x98 }
  - { offset: 0x1650C, size: 0x8, addend: 0x0, symName: __ZNSt3__113__unwrap_iterB8ne180100INS_21__tree_const_iteratorIiPNS_11__tree_nodeIiPvEElEENS_18__unwrap_iter_implIS6_Lb0EEELi0EEEDTclsrT0_8__unwrapclsr3stdE7declvalIT_EEEESA_, symObjAddr: 0x10E2C, symBinAddr: 0x100012CEC, symSize: 0x34 }
  - { offset: 0x16598, size: 0x8, addend: 0x0, symName: __ZNSt3__18__invokeB8ne180100IRNS_10__identityEJRKiEEEDTclclsr3stdE7declvalIT_EEspclsr3stdE7declvalIT0_EEEEOS5_DpOS6_, symObjAddr: 0x10E80, symBinAddr: 0x100012D40, symSize: 0x2C }
  - { offset: 0x1663A, size: 0x8, addend: 0x0, symName: __ZNSt3__1eqB8ne180100ERKNS_15__tree_iteratorIiPNS_11__tree_nodeIiPvEElEES7_, symObjAddr: 0x11078, symBinAddr: 0x100012F38, symSize: 0x30 }
  - { offset: 0x16677, size: 0x8, addend: 0x0, symName: __ZNSt3__1neB8ne180100ERKNS_15__tree_iteratorIiPNS_11__tree_nodeIiPvEElEES7_, symObjAddr: 0x111E4, symBinAddr: 0x1000130A4, symSize: 0x34 }
  - { offset: 0x166B5, size: 0x8, addend: 0x0, symName: __ZNSt3__113__tree_removeB8ne180100IPNS_16__tree_node_baseIPvEEEEvT_S5_, symObjAddr: 0x11344, symBinAddr: 0x100013204, symSize: 0x6F0 }
  - { offset: 0x16733, size: 0x8, addend: 0x0, symName: __ZNSt3__111__tree_nextB8ne180100IPNS_16__tree_node_baseIPvEEEET_S5_, symObjAddr: 0x11A34, symBinAddr: 0x1000138F4, symSize: 0x80 }
  - { offset: 0x16769, size: 0x8, addend: 0x0, symName: __ZNSt3__112__to_addressB8ne180100INS_6vectorIiNS_9allocatorIiEEEEEEPT_S6_, symObjAddr: 0x11EB8, symBinAddr: 0x100013D78, symSize: 0x14 }
  - { offset: 0x1679E, size: 0x8, addend: 0x0, symName: __ZNSt3__119__allocate_at_leastB8ne180100INS_9allocatorINS_6vectorIiNS1_IiEEEEEEEENS_19__allocation_resultINS_16allocator_traitsIT_E7pointerEEERS8_m, symObjAddr: 0x128D8, symBinAddr: 0x100014798, symSize: 0x40 }
  - { offset: 0x167E1, size: 0x8, addend: 0x0, symName: __ZNSt3__142__uninitialized_allocator_move_if_noexceptB8ne180100INS_9allocatorINS_6vectorIiNS1_IiEEEEEENS_16reverse_iteratorIPS4_EES8_S8_EET2_RT_T0_T1_S9_, symObjAddr: 0x12A90, symBinAddr: 0x100014950, symSize: 0x12C }
  - { offset: 0x16882, size: 0x8, addend: 0x0, symName: __ZNSt3__14swapB8ne180100IPNS_6vectorIiNS_9allocatorIiEEEEEENS_9enable_ifIXaasr21is_move_constructibleIT_EE5valuesr18is_move_assignableIS7_EE5valueEvE4typeERS7_SA_, symObjAddr: 0x12C08, symBinAddr: 0x100014AC8, symSize: 0x3C }
  - { offset: 0x168D3, size: 0x8, addend: 0x0, symName: __ZNSt3__122__make_exception_guardB8ne180100INS_29_AllocatorDestroyRangeReverseINS_9allocatorINS_6vectorIiNS2_IiEEEEEENS_16reverse_iteratorIPS5_EEEEEENS_28__exception_guard_exceptionsIT_EESC_, symObjAddr: 0x12C58, symBinAddr: 0x100014B18, symSize: 0x4C }
  - { offset: 0x16909, size: 0x8, addend: 0x0, symName: __ZNSt3__1neB8ne180100IPNS_6vectorIiNS_9allocatorIiEEEES5_EEbRKNS_16reverse_iteratorIT_EERKNS6_IT0_EE, symObjAddr: 0x12CE8, symBinAddr: 0x100014BA8, symSize: 0x48 }
  - { offset: 0x16955, size: 0x8, addend: 0x0, symName: __ZNSt3__112__to_addressB8ne180100INS_16reverse_iteratorIPNS_6vectorIiNS_9allocatorIiEEEEEEvEEu7__decayIDTclsr19__to_address_helperIT_EE6__callclsr3stdE7declvalIRKS8_EEEEESA_, symObjAddr: 0x12D30, symBinAddr: 0x100014BF0, symSize: 0x24 }
  - { offset: 0x169B5, size: 0x8, addend: 0x0, symName: __ZNSt3__119__allocator_destroyB8ne180100INS_9allocatorINS_6vectorIiNS1_IiEEEEEENS_16reverse_iteratorINS6_IPS4_EEEES9_EEvRT_T0_T1_, symObjAddr: 0x12FE0, symBinAddr: 0x100014EA0, symSize: 0x70 }
  - { offset: 0x16A1A, size: 0x8, addend: 0x0, symName: __ZNSt3__1neB8ne180100INS_16reverse_iteratorIPNS_6vectorIiNS_9allocatorIiEEEEEES7_EEbRKNS1_IT_EERKNS1_IT0_EE, symObjAddr: 0x1308C, symBinAddr: 0x100014F4C, symSize: 0x60 }
  - { offset: 0x16A66, size: 0x8, addend: 0x0, symName: __ZNSt3__112__to_addressB8ne180100INS_16reverse_iteratorINS1_IPNS_6vectorIiNS_9allocatorIiEEEEEEEEvEEu7__decayIDTclsr19__to_address_helperIT_EE6__callclsr3stdE7declvalIRKS9_EEEEESB_, symObjAddr: 0x130EC, symBinAddr: 0x100014FAC, symSize: 0x24 }
  - { offset: 0x16AC5, size: 0x8, addend: 0x0, symName: __ZNSt3__122__make_exception_guardB8ne180100INS_6vectorIiNS_9allocatorIiEEE16__destroy_vectorEEENS_28__exception_guard_exceptionsIT_EES7_, symObjAddr: 0x13784, symBinAddr: 0x100015644, symSize: 0x40 }
  - { offset: 0x16AFA, size: 0x8, addend: 0x0, symName: __ZNSt3__130__uninitialized_allocator_copyB8ne180100INS_9allocatorIiEEPiS3_S3_EET2_RT_T0_T1_S4_, symObjAddr: 0x1399C, symBinAddr: 0x10001585C, symSize: 0x80 }
  - { offset: 0x16B97, size: 0x8, addend: 0x0, symName: __ZNSt3__114__unwrap_rangeB8ne180100IPiS1_EENS_4pairIT0_S3_EET_S5_, symObjAddr: 0x13A1C, symBinAddr: 0x1000158DC, symSize: 0x60 }
  - { offset: 0x16BE3, size: 0x8, addend: 0x0, symName: __ZNSt3__135__uninitialized_allocator_copy_implB8ne180100INS_9allocatorIiEEiiiLPv0EEEPT2_RT_PT0_S9_S5_, symObjAddr: 0x13A7C, symBinAddr: 0x10001593C, symSize: 0x38 }
  - { offset: 0x16C65, size: 0x8, addend: 0x0, symName: __ZNSt3__113__unwrap_iterB8ne180100IPiNS_18__unwrap_iter_implIS1_Lb1EEELi0EEEDTclsrT0_8__unwrapclsr3stdE7declvalIT_EEEES5_, symObjAddr: 0x13AB4, symBinAddr: 0x100015974, symSize: 0x24 }
  - { offset: 0x16CA9, size: 0x8, addend: 0x0, symName: __ZNSt3__113__rewrap_iterB8ne180100IPiS1_NS_18__unwrap_iter_implIS1_Lb1EEEEET_S4_T0_, symObjAddr: 0x13AD8, symBinAddr: 0x100015998, symSize: 0x3C }
  - { offset: 0x16CFE, size: 0x8, addend: 0x0, symName: __ZNSt3__19make_pairB8ne180100IPiS1_EENS_4pairINS_18__unwrap_ref_decayIT_E4typeENS3_IT0_E4typeEEEOS4_OS7_, symObjAddr: 0x13B14, symBinAddr: 0x1000159D4, symSize: 0x38 }
  - { offset: 0x16E50, size: 0x8, addend: 0x0, symName: __ZNSt3__14copyB8ne180100IPiS1_EET0_T_S3_S2_, symObjAddr: 0x13BBC, symBinAddr: 0x100015A7C, symSize: 0x40 }
  - { offset: 0x16EAA, size: 0x8, addend: 0x0, symName: __ZNSt3__16__copyB8ne180100INS_17_ClassicAlgPolicyEPiS2_S2_EENS_4pairIT0_T2_EES4_T1_S5_, symObjAddr: 0x13BFC, symBinAddr: 0x100015ABC, symSize: 0x44 }
  - { offset: 0x16F16, size: 0x8, addend: 0x0, symName: __ZNSt3__123__dispatch_copy_or_moveB8ne180100INS_17_ClassicAlgPolicyENS_11__copy_loopIS1_EENS_14__copy_trivialEPiS5_S5_EENS_4pairIT2_T4_EES7_T3_S8_, symObjAddr: 0x13C40, symBinAddr: 0x100015B00, symSize: 0x44 }
  - { offset: 0x16F94, size: 0x8, addend: 0x0, symName: __ZNSt3__121__unwrap_and_dispatchB8ne180100INS_10__overloadINS_11__copy_loopINS_17_ClassicAlgPolicyEEENS_14__copy_trivialEEEPiS7_S7_Li0EEENS_4pairIT0_T2_EES9_T1_SA_, symObjAddr: 0x13C84, symBinAddr: 0x100015B44, symSize: 0xB4 }
  - { offset: 0x17022, size: 0x8, addend: 0x0, symName: __ZNSt3__114__rewrap_rangeB8ne180100IPiS1_EET_S2_T0_, symObjAddr: 0x13D80, symBinAddr: 0x100015C40, symSize: 0x2C }
  - { offset: 0x1706E, size: 0x8, addend: 0x0, symName: __ZNSt3__119__copy_trivial_implB8ne180100IiiEENS_4pairIPT_PT0_EES3_S3_S5_, symObjAddr: 0x13DAC, symBinAddr: 0x100015C6C, symSize: 0x80 }
  - { offset: 0x170D6, size: 0x8, addend: 0x0, symName: __ZNSt3__119__constexpr_memmoveB8ne180100IiiLi0EEEPT_S2_PT0_NS_15__element_countE, symObjAddr: 0x13E2C, symBinAddr: 0x100015CEC, symSize: 0x64 }
  - { offset: 0x17144, size: 0x8, addend: 0x0, symName: __ZNSt3__19make_pairB8ne180100IRPiS1_EENS_4pairINS_18__unwrap_ref_decayIT_E4typeENS4_IT0_E4typeEEEOS5_OS8_, symObjAddr: 0x13E90, symBinAddr: 0x100015D50, symSize: 0x38 }
  - { offset: 0x171E6, size: 0x8, addend: 0x0, symName: __ZNSt3__113__rewrap_iterB8ne180100INS_11__wrap_iterIPiEES2_NS_18__unwrap_iter_implIS3_Lb1EEEEET_S6_T0_, symObjAddr: 0x14078, symBinAddr: 0x100015F38, symSize: 0x4C }
  - { offset: 0x1723B, size: 0x8, addend: 0x0, symName: __ZNSt3__111__find_implB8ne180100IPiS1_jNS_10__identityEEET_S3_T0_RKT1_RT2_, symObjAddr: 0x140C4, symBinAddr: 0x100015F84, symSize: 0x88 }
  - { offset: 0x172B5, size: 0x8, addend: 0x0, symName: __ZNSt3__113__unwrap_iterB8ne180100INS_11__wrap_iterIPiEENS_18__unwrap_iter_implIS3_Lb1EEELi0EEEDTclsrT0_8__unwrapclsr3stdE7declvalIT_EEEES7_, symObjAddr: 0x1414C, symBinAddr: 0x10001600C, symSize: 0x2C }
  - { offset: 0x1734C, size: 0x8, addend: 0x0, symName: __ZNSt3__112__to_addressB8ne180100INS_11__wrap_iterIPiEEvEEu7__decayIDTclsr19__to_address_helperIT_EE6__callclsr3stdE7declvalIRKS4_EEEEES6_, symObjAddr: 0x14210, symBinAddr: 0x1000160D0, symSize: 0x24 }
  - { offset: 0x17427, size: 0x8, addend: 0x0, symName: __ZNSt3__18__invokeB8ne180100IRNS_10__identityEJRiEEEDTclclsr3stdE7declvalIT_EEspclsr3stdE7declvalIT0_EEEEOS4_DpOS5_, symObjAddr: 0x142B8, symBinAddr: 0x100016178, symSize: 0x2C }
  - { offset: 0x18766, size: 0x8, addend: 0x0, symName: __ZSt28__throw_bad_array_new_lengthB8ne180100v, symObjAddr: 0x4398, symBinAddr: 0x100006258, symSize: 0x34 }
  - { offset: 0x18ACD, size: 0x8, addend: 0x0, symName: _main, symObjAddr: 0x608, symBinAddr: 0x1000024C8, symSize: 0x1E24 }
  - { offset: 0x19494, size: 0x8, addend: 0x0, symName: __ZNKSt3__16chrono15__duration_castINS0_8durationIxNS_5ratioILl1ELl1000000000EEEEENS2_IdNS3_ILl1ELl1EEEEES4_Lb1ELb0EEclB8ne180100ERKS5_, symObjAddr: 0x52D4, symBinAddr: 0x100007194, symSize: 0x4C }
  - { offset: 0x198A2, size: 0x8, addend: 0x0, symName: __ZNSt3__16vectorIZ4mainE4LinkNS_9allocatorIS1_EEE26__swap_out_circular_bufferERNS_14__split_bufferIS1_RS3_EE, symObjAddr: 0x6144, symBinAddr: 0x100008004, symSize: 0x110 }
  - { offset: 0x199FC, size: 0x8, addend: 0x0, symName: __ZNSt3__16vectorI9site_typeNS_9allocatorIS1_EEE26__swap_out_circular_bufferERNS_14__split_bufferIS1_RS3_EE, symObjAddr: 0x8768, symBinAddr: 0x10000A628, symSize: 0x110 }
  - { offset: 0x19A9B, size: 0x8, addend: 0x0, symName: __ZNSt3__16vectorIjNS_9allocatorIjEEE26__swap_out_circular_bufferERNS_14__split_bufferIjRS2_EE, symObjAddr: 0xA124, symBinAddr: 0x10000BFE4, symSize: 0x110 }
  - { offset: 0x1A217, size: 0x8, addend: 0x0, symName: __ZNSt3__16vectorIdNS_9allocatorIdEEE26__swap_out_circular_bufferERNS_14__split_bufferIdRS2_EE, symObjAddr: 0xCEF4, symBinAddr: 0x10000EDB4, symSize: 0x110 }
  - { offset: 0x1A271, size: 0x8, addend: 0x0, symName: __ZNSt3__16vectorIiNS_9allocatorIiEEE26__swap_out_circular_bufferERNS_14__split_bufferIiRS2_EE, symObjAddr: 0xE180, symBinAddr: 0x100010040, symSize: 0x110 }
  - { offset: 0x1A47C, size: 0x8, addend: 0x0, symName: __ZNSt3__16vectorINS0_IiNS_9allocatorIiEEEENS1_IS3_EEE26__swap_out_circular_bufferERNS_14__split_bufferIS3_RS4_EE, symObjAddr: 0x12568, symBinAddr: 0x100014428, symSize: 0x110 }
  - { offset: 0x1A550, size: 0x8, addend: 0x0, symName: __Z6next64v, symObjAddr: 0x0, symBinAddr: 0x100001EC0, symSize: 0xAC }
  - { offset: 0x1A58B, size: 0x8, addend: 0x0, symName: __ZL6rotl64yi, symObjAddr: 0xAC, symBinAddr: 0x100001F6C, symSize: 0x38 }
  - { offset: 0x1A5C5, size: 0x8, addend: 0x0, symName: __Z12bounded_randj, symObjAddr: 0xE4, symBinAddr: 0x100001FA4, symSize: 0x44 }
  - { offset: 0x1A60E, size: 0x8, addend: 0x0, symName: __Z6d_randv, symObjAddr: 0x128, symBinAddr: 0x100001FE8, symSize: 0x28 }
  - { offset: 0x1A62C, size: 0x8, addend: 0x0, symName: __Z8murmur64y, symObjAddr: 0x150, symBinAddr: 0x100002010, symSize: 0x80 }
  - { offset: 0x1A658, size: 0x8, addend: 0x0, symName: __Z6m_randy, symObjAddr: 0x1D0, symBinAddr: 0x100002090, symSize: 0x44 }
  - { offset: 0x1A6A0, size: 0x8, addend: 0x0, symName: __Z6next32v, symObjAddr: 0x214, symBinAddr: 0x1000020D4, symSize: 0xAC }
  - { offset: 0x1A6DB, size: 0x8, addend: 0x0, symName: __ZL6rotl32ji, symObjAddr: 0x2C0, symBinAddr: 0x100002180, symSize: 0x38 }
  - { offset: 0x1A715, size: 0x8, addend: 0x0, symName: __Z7randinti, symObjAddr: 0x2F8, symBinAddr: 0x1000021B8, symSize: 0x34 }
  - { offset: 0x1A741, size: 0x8, addend: 0x0, symName: __Z9randfloatv, symObjAddr: 0x32C, symBinAddr: 0x1000021EC, symSize: 0x3C }
  - { offset: 0x1A76D, size: 0x8, addend: 0x0, symName: __Z11calc_energyNSt3__16vectorI9site_typeNS_9allocatorIS1_EEEE, symObjAddr: 0x368, symBinAddr: 0x100002228, symSize: 0x1A0 }
  - { offset: 0x1A7FC, size: 0x8, addend: 0x0, symName: __ZNKSt3__16vectorI9site_typeNS_9allocatorIS1_EEE4sizeB8ne180100Ev, symObjAddr: 0x508, symBinAddr: 0x1000023C8, symSize: 0x28 }
  - { offset: 0x1A822, size: 0x8, addend: 0x0, symName: __ZNSt3__16vectorI9site_typeNS_9allocatorIS1_EEEixB8ne180100Em, symObjAddr: 0x530, symBinAddr: 0x1000023F0, symSize: 0x2C }
  - { offset: 0x1A85F, size: 0x8, addend: 0x0, symName: __ZN9site_typeC1ERKS_, symObjAddr: 0x55C, symBinAddr: 0x10000241C, symSize: 0x34 }
  - { offset: 0x1A894, size: 0x8, addend: 0x0, symName: __ZNKSt3__16vectorIjNS_9allocatorIjEEE4sizeB8ne180100Ev, symObjAddr: 0x590, symBinAddr: 0x100002450, symSize: 0x28 }
  - { offset: 0x1A8BA, size: 0x8, addend: 0x0, symName: __ZNSt3__16vectorIjNS_9allocatorIjEEEixB8ne180100Em, symObjAddr: 0x5B8, symBinAddr: 0x100002478, symSize: 0x24 }
  - { offset: 0x1A8F1, size: 0x8, addend: 0x0, symName: __ZN9site_typeD1Ev, symObjAddr: 0x5DC, symBinAddr: 0x10000249C, symSize: 0x2C }
  - { offset: 0x1A939, size: 0x8, addend: 0x0, symName: __ZNSt3__113random_deviceC1B8ne180100Ev, symObjAddr: 0x242C, symBinAddr: 0x1000042EC, symSize: 0x74 }
  - { offset: 0x1A963, size: 0x8, addend: 0x0, symName: __ZNSt3__16vectorI9site_typeNS_9allocatorIS1_EEEC1B8ne180100Ev, symObjAddr: 0x24A0, symBinAddr: 0x100004360, symSize: 0x2C }
  - { offset: 0x1ACEE, size: 0x8, addend: 0x0, symName: __ZNSt3__114basic_ifstreamIcNS_11char_traitsIcEEEC1Ev, symObjAddr: 0x24CC, symBinAddr: 0x10000438C, symSize: 0xE0 }
  - { offset: 0x1AD1A, size: 0x8, addend: 0x0, symName: __ZNKSt3__19basic_iosIcNS_11char_traitsIcEEEntB8ne180100Ev, symObjAddr: 0x25AC, symBinAddr: 0x10000446C, symSize: 0x28 }
  - { offset: 0x1AD40, size: 0x8, addend: 0x0, symName: __ZNSt3__16vectorIZ4mainE4LinkNS_9allocatorIS1_EEEC1B8ne180100Ev, symObjAddr: 0x25D4, symBinAddr: 0x100004494, symSize: 0x2C }
  - { offset: 0x1AD6A, size: 0x8, addend: 0x0, symName: __ZNSt3__16vectorIZ4mainE4LinkNS_9allocatorIS1_EEE7reserveEm, symObjAddr: 0x2600, symBinAddr: 0x1000044C0, symSize: 0xE8 }
  - { offset: 0x1ADC6, size: 0x8, addend: 0x0, symName: __ZNSt3__112basic_stringIcNS_11char_traitsIcEENS_9allocatorIcEEEC1B8ne180100Ev, symObjAddr: 0x26E8, symBinAddr: 0x1000045A8, symSize: 0x2C }
  - { offset: 0x1ADF0, size: 0x8, addend: 0x0, symName: __ZNSt3__16vectorIZ4mainE4LinkNS_9allocatorIS1_EEE9push_backB8ne180100EOS1_, symObjAddr: 0x294C, symBinAddr: 0x10000480C, symSize: 0x90 }
  - { offset: 0x1AE36, size: 0x8, addend: 0x0, symName: __ZNSt3__114basic_ifstreamIcNS_11char_traitsIcEEE5closeEv, symObjAddr: 0x29DC, symBinAddr: 0x10000489C, symSize: 0x58 }
  - { offset: 0x1AE5E, size: 0x8, addend: 0x0, symName: __ZNSt3__16vectorIjNS_9allocatorIjEEEC1EmRKj, symObjAddr: 0x2A34, symBinAddr: 0x1000048F4, symSize: 0x3C }
  - { offset: 0x1AEA8, size: 0x8, addend: 0x0, symName: __ZNKSt3__16vectorIZ4mainE4LinkNS_9allocatorIS1_EEE4sizeB8ne180100Ev, symObjAddr: 0x2A70, symBinAddr: 0x100004930, symSize: 0x28 }
  - { offset: 0x1AECE, size: 0x8, addend: 0x0, symName: __ZNSt3__16vectorIZ4mainE4LinkNS_9allocatorIS1_EEEixB8ne180100Em, symObjAddr: 0x2A98, symBinAddr: 0x100004958, symSize: 0x24 }
  - { offset: 0x1AF05, size: 0x8, addend: 0x0, symName: __ZNSt3__113basic_ostreamIcNS_11char_traitsIcEEElsB8ne180100EPFRS3_S4_E, symObjAddr: 0x2B04, symBinAddr: 0x1000049C4, symSize: 0x2C }
  - { offset: 0x1AF39, size: 0x8, addend: 0x0, symName: __ZNSt3__16vectorI9site_typeNS_9allocatorIS1_EEE7reserveEm, symObjAddr: 0x2B88, symBinAddr: 0x100004A48, symSize: 0xE8 }
  - { offset: 0x1AF95, size: 0x8, addend: 0x0, symName: __ZNSt3__16vectorI9site_typeNS_9allocatorIS1_EEE6resizeEm, symObjAddr: 0x2C70, symBinAddr: 0x100004B30, symSize: 0x9C }
  - { offset: 0x1AFDB, size: 0x8, addend: 0x0, symName: __ZNSt3__16vectorIjNS_9allocatorIjEEE9push_backB8ne180100ERKj, symObjAddr: 0x2D0C, symBinAddr: 0x100004BCC, symSize: 0x90 }
  - { offset: 0x1B021, size: 0x8, addend: 0x0, symName: __ZNSt3__16vectorIjNS_9allocatorIjEEE9push_backB8ne180100EOj, symObjAddr: 0x2D9C, symBinAddr: 0x100004C5C, symSize: 0x90 }
  - { offset: 0x1B067, size: 0x8, addend: 0x0, symName: __ZNSt3__16vectorI9site_typeNS_9allocatorIS1_EEEC1ERKS4_, symObjAddr: 0x2E2C, symBinAddr: 0x100004CEC, symSize: 0x34 }
  - { offset: 0x1B0A2, size: 0x8, addend: 0x0, symName: __ZNSt3__16vectorI9site_typeNS_9allocatorIS1_EEED1B8ne180100Ev, symObjAddr: 0x2E60, symBinAddr: 0x100004D20, symSize: 0x2C }
  - { offset: 0x1B0CC, size: 0x8, addend: 0x0, symName: __ZNSt3__16vectorIiNS_9allocatorIiEEEC1B8ne180100Ev, symObjAddr: 0x2E8C, symBinAddr: 0x100004D4C, symSize: 0x2C }
  - { offset: 0x1B0F6, size: 0x8, addend: 0x0, symName: __ZNSt3__16vectorIdNS_9allocatorIdEEEC1B8ne180100Ev, symObjAddr: 0x2EB8, symBinAddr: 0x100004D78, symSize: 0x2C }
  - { offset: 0x1B192, size: 0x8, addend: 0x0, symName: __ZNSt3__13setIiNS_4lessIiEENS_9allocatorIiEEEC1B8ne180100Ev, symObjAddr: 0x2EE4, symBinAddr: 0x100004DA4, symSize: 0x2C }
  - { offset: 0x1B1BC, size: 0x8, addend: 0x0, symName: __ZNSt3__16vectorIdNS_9allocatorIdEEE9push_backB8ne180100EOd, symObjAddr: 0x2F10, symBinAddr: 0x100004DD0, symSize: 0x90 }
  - { offset: 0x1B202, size: 0x8, addend: 0x0, symName: __ZNSt3__16vectorIiNS_9allocatorIiEEE9push_backB8ne180100EOi, symObjAddr: 0x2FA0, symBinAddr: 0x100004E60, symSize: 0x90 }
  - { offset: 0x1B248, size: 0x8, addend: 0x0, symName: __ZNSt3__13setIiNS_4lessIiEENS_9allocatorIiEEE6insertB8ne180100ERKi, symObjAddr: 0x3030, symBinAddr: 0x100004EF0, symSize: 0x4C }
  - { offset: 0x1B27D, size: 0x8, addend: 0x0, symName: __ZNSt3__121__tree_const_iteratorIiPNS_11__tree_nodeIiPvEElEC1B8ne180100Ev, symObjAddr: 0x307C, symBinAddr: 0x100004F3C, symSize: 0x2C }
  - { offset: 0x1B2A7, size: 0x8, addend: 0x0, symName: __ZNSt3__13setIiNS_4lessIiEENS_9allocatorIiEEE5clearB8ne180100Ev, symObjAddr: 0x30A8, symBinAddr: 0x100004F68, symSize: 0x24 }
  - { offset: 0x1B2CD, size: 0x8, addend: 0x0, symName: __ZNSt3__13setIiNS_4lessIiEENS_9allocatorIiEEE6insertB8ne180100INS_21__tree_const_iteratorIiPNS_11__tree_nodeIiPvEElEEEEvT_SD_, symObjAddr: 0x30CC, symBinAddr: 0x100004F8C, symSize: 0x80 }
  - { offset: 0x1B338, size: 0x8, addend: 0x0, symName: __ZNSt3__13setIiNS_4lessIiEENS_9allocatorIiEEE5beginB8ne180100Ev, symObjAddr: 0x314C, symBinAddr: 0x10000500C, symSize: 0x38 }
  - { offset: 0x1B35E, size: 0x8, addend: 0x0, symName: __ZNSt3__13setIiNS_4lessIiEENS_9allocatorIiEEE3endB8ne180100Ev, symObjAddr: 0x3184, symBinAddr: 0x100005044, symSize: 0x38 }
  - { offset: 0x1B384, size: 0x8, addend: 0x0, symName: __ZNKSt3__13setIiNS_4lessIiEENS_9allocatorIiEEE4sizeB8ne180100Ev, symObjAddr: 0x31BC, symBinAddr: 0x10000507C, symSize: 0x28 }
  - { offset: 0x1B3AA, size: 0x8, addend: 0x0, symName: __ZNKSt3__121__tree_const_iteratorIiPNS_11__tree_nodeIiPvEElEdeB8ne180100Ev, symObjAddr: 0x3218, symBinAddr: 0x1000050D8, symSize: 0x28 }
  - { offset: 0x1B3D0, size: 0x8, addend: 0x0, symName: __ZNSt3__16vectorIjNS_9allocatorIjEEE5beginB8ne180100Ev, symObjAddr: 0x3240, symBinAddr: 0x100005100, symSize: 0x30 }
  - { offset: 0x1B3F8, size: 0x8, addend: 0x0, symName: __ZNSt3__16vectorIjNS_9allocatorIjEEE3endB8ne180100Ev, symObjAddr: 0x3270, symBinAddr: 0x100005130, symSize: 0x30 }
  - { offset: 0x1B420, size: 0x8, addend: 0x0, symName: __ZNKSt3__111__wrap_iterIPjEdeB8ne180100Ev, symObjAddr: 0x32D4, symBinAddr: 0x100005194, symSize: 0x18 }
  - { offset: 0x1B446, size: 0x8, addend: 0x0, symName: __ZNSt3__111__wrap_iterIPjEppB8ne180100Ev, symObjAddr: 0x336C, symBinAddr: 0x10000522C, symSize: 0x20 }
  - { offset: 0x1B46C, size: 0x8, addend: 0x0, symName: __ZNSt3__121__tree_const_iteratorIiPNS_11__tree_nodeIiPvEElEppB8ne180100Ei, symObjAddr: 0x338C, symBinAddr: 0x10000524C, symSize: 0x34 }
  - { offset: 0x1B4AD, size: 0x8, addend: 0x0, symName: __ZNSt3__13setIiNS_4lessIiEENS_9allocatorIiEEE5eraseB8ne180100ERKi, symObjAddr: 0x33C0, symBinAddr: 0x100005280, symSize: 0x2C }
  - { offset: 0x1B4E2, size: 0x8, addend: 0x0, symName: __ZNSt3__16vectorIiNS_9allocatorIiEEEixB8ne180100Em, symObjAddr: 0x33EC, symBinAddr: 0x1000052AC, symSize: 0x24 }
  - { offset: 0x1B519, size: 0x8, addend: 0x0, symName: __ZNSt3__16chrono8durationIdNS_5ratioILl1ELl1EEEEC1B8ne180100IxNS2_ILl1ELl1000000000EEELi0EEERKNS1_IT_T0_EE, symObjAddr: 0x3468, symBinAddr: 0x100005328, symSize: 0x34 }
  - { offset: 0x1B569, size: 0x8, addend: 0x0, symName: __ZNKSt3__16chrono8durationIdNS_5ratioILl1ELl1EEEE5countB8ne180100Ev, symObjAddr: 0x349C, symBinAddr: 0x10000535C, symSize: 0x18 }
  - { offset: 0x1B58F, size: 0x8, addend: 0x0, symName: __ZNSt3__16vectorINS0_IiNS_9allocatorIiEEEENS1_IS3_EEEC1B8ne180100Ev, symObjAddr: 0x34B4, symBinAddr: 0x100005374, symSize: 0x2C }
  - { offset: 0x1B5B9, size: 0x8, addend: 0x0, symName: __ZNSt3__16vectorINS0_IiNS_9allocatorIiEEEENS1_IS3_EEE9push_backB8ne180100EOS3_, symObjAddr: 0x34E0, symBinAddr: 0x1000053A0, symSize: 0x90 }
  - { offset: 0x1B5FF, size: 0x8, addend: 0x0, symName: __ZNSt3__16vectorIiNS_9allocatorIiEEED1B8ne180100Ev, symObjAddr: 0x3570, symBinAddr: 0x100005430, symSize: 0x2C }
  - { offset: 0x1B629, size: 0x8, addend: 0x0, symName: __ZNSt3__16vectorINS0_IiNS_9allocatorIiEEEENS1_IS3_EEEixB8ne180100Em, symObjAddr: 0x359C, symBinAddr: 0x10000545C, symSize: 0x2C }
  - { offset: 0x1B660, size: 0x8, addend: 0x0, symName: __ZNSt3__16vectorIiNS_9allocatorIiEEE9push_backB8ne180100ERKi, symObjAddr: 0x35C8, symBinAddr: 0x100005488, symSize: 0x90 }
  - { offset: 0x1B6A6, size: 0x8, addend: 0x0, symName: __ZNKSt3__16vectorIiNS_9allocatorIiEEE4sizeB8ne180100Ev, symObjAddr: 0x3658, symBinAddr: 0x100005518, symSize: 0x28 }
  - { offset: 0x1B6CC, size: 0x8, addend: 0x0, symName: __ZNKSt3__16vectorINS0_IiNS_9allocatorIiEEEENS1_IS3_EEE4sizeB8ne180100Ev, symObjAddr: 0x3680, symBinAddr: 0x100005540, symSize: 0x28 }
  - { offset: 0x1B6F2, size: 0x8, addend: 0x0, symName: __ZNSt3__16vectorIiNS_9allocatorIiEEEC1ERKS3_, symObjAddr: 0x36A8, symBinAddr: 0x100005568, symSize: 0x34 }
  - { offset: 0x1B72D, size: 0x8, addend: 0x0, symName: __ZNSt3__16vectorIiNS_9allocatorIiEEE5beginB8ne180100Ev, symObjAddr: 0x3788, symBinAddr: 0x100005648, symSize: 0x30 }
  - { offset: 0x1B755, size: 0x8, addend: 0x0, symName: __ZNSt3__16vectorIiNS_9allocatorIiEEE3endB8ne180100Ev, symObjAddr: 0x37B8, symBinAddr: 0x100005678, symSize: 0x30 }
  - { offset: 0x1B77D, size: 0x8, addend: 0x0, symName: __ZNSt3__16vectorINS0_IiNS_9allocatorIiEEEENS1_IS3_EEE5clearB8ne180100Ev, symObjAddr: 0x37E8, symBinAddr: 0x1000056A8, symSize: 0x44 }
  - { offset: 0x1B7B2, size: 0x8, addend: 0x0, symName: __ZNSt3__16vectorINS0_IiNS_9allocatorIiEEEENS1_IS3_EEE5beginB8ne180100Ev, symObjAddr: 0x382C, symBinAddr: 0x1000056EC, symSize: 0x30 }
  - { offset: 0x1B7DA, size: 0x8, addend: 0x0, symName: __ZNSt3__16vectorINS0_IiNS_9allocatorIiEEEENS1_IS3_EEE3endB8ne180100Ev, symObjAddr: 0x385C, symBinAddr: 0x10000571C, symSize: 0x30 }
  - { offset: 0x1B802, size: 0x8, addend: 0x0, symName: __ZNKSt3__111__wrap_iterIPNS_6vectorIiNS_9allocatorIiEEEEEdeB8ne180100Ev, symObjAddr: 0x38C0, symBinAddr: 0x100005780, symSize: 0x18 }
  - { offset: 0x1B828, size: 0x8, addend: 0x0, symName: __ZNKSt3__111__wrap_iterIPiEdeB8ne180100Ev, symObjAddr: 0x38D8, symBinAddr: 0x100005798, symSize: 0x18 }
  - { offset: 0x1B84E, size: 0x8, addend: 0x0, symName: __ZNSt3__111__wrap_iterIPiEppB8ne180100Ev, symObjAddr: 0x3914, symBinAddr: 0x1000057D4, symSize: 0x20 }
  - { offset: 0x1B874, size: 0x8, addend: 0x0, symName: __ZNSt3__111__wrap_iterIPNS_6vectorIiNS_9allocatorIiEEEEEppB8ne180100Ev, symObjAddr: 0x3934, symBinAddr: 0x1000057F4, symSize: 0x20 }
  - { offset: 0x1B89A, size: 0x8, addend: 0x0, symName: __ZNSt3__16vectorINS0_IiNS_9allocatorIiEEEENS1_IS3_EEED1B8ne180100Ev, symObjAddr: 0x397C, symBinAddr: 0x10000583C, symSize: 0x2C }
  - { offset: 0x1B8C4, size: 0x8, addend: 0x0, symName: __ZNSt3__13setIiNS_4lessIiEENS_9allocatorIiEEED1B8ne180100Ev, symObjAddr: 0x39A8, symBinAddr: 0x100005868, symSize: 0x2C }
  - { offset: 0x1B8EE, size: 0x8, addend: 0x0, symName: __ZNSt3__16vectorIdNS_9allocatorIdEEED1B8ne180100Ev, symObjAddr: 0x39D4, symBinAddr: 0x100005894, symSize: 0x2C }
  - { offset: 0x1B918, size: 0x8, addend: 0x0, symName: __ZNSt3__16vectorIjNS_9allocatorIjEEED1B8ne180100Ev, symObjAddr: 0x3A00, symBinAddr: 0x1000058C0, symSize: 0x2C }
  - { offset: 0x1B942, size: 0x8, addend: 0x0, symName: __ZNSt3__16vectorIZ4mainE4LinkNS_9allocatorIS1_EEED1B8ne180100Ev, symObjAddr: 0x3A2C, symBinAddr: 0x1000058EC, symSize: 0x2C }
  - { offset: 0x1B972, size: 0x8, addend: 0x0, symName: __ZNSt3__114basic_ifstreamIcNS_11char_traitsIcEEED1Ev, symObjAddr: 0x3A58, symBinAddr: 0x100005918, symSize: 0x40 }
  - { offset: 0x1B99F, size: 0x8, addend: 0x0, symName: __ZN9site_typeC2ERKS_, symObjAddr: 0x3A98, symBinAddr: 0x100005958, symSize: 0x84 }
  - { offset: 0x1B9D4, size: 0x8, addend: 0x0, symName: __ZNSt3__16vectorIjNS_9allocatorIjEEEC1ERKS3_, symObjAddr: 0x3B1C, symBinAddr: 0x1000059DC, symSize: 0x34 }
  - { offset: 0x1BA0F, size: 0x8, addend: 0x0, symName: __ZNSt3__16vectorIjNS_9allocatorIjEEEC2ERKS3_, symObjAddr: 0x3B50, symBinAddr: 0x100005A10, symSize: 0x94 }
  - { offset: 0x1BA55, size: 0x8, addend: 0x0, symName: __ZNSt3__116allocator_traitsINS_9allocatorIjEEE37select_on_container_copy_constructionB8ne180100IS2_vvEES2_RKS2_, symObjAddr: 0x3BE4, symBinAddr: 0x100005AA4, symSize: 0x10 }
  - { offset: 0x1BA84, size: 0x8, addend: 0x0, symName: __ZNKSt3__16vectorIjNS_9allocatorIjEEE7__allocB8ne180100Ev, symObjAddr: 0x3BF4, symBinAddr: 0x100005AB4, symSize: 0x28 }
  - { offset: 0x1BAB6, size: 0x8, addend: 0x0, symName: __ZNSt3__117__compressed_pairIPjNS_9allocatorIjEEEC1B8ne180100IDnS3_EEOT_OT0_, symObjAddr: 0x3C1C, symBinAddr: 0x100005ADC, symSize: 0x3C }
  - { offset: 0x1BB0E, size: 0x8, addend: 0x0, symName: __ZNSt3__16vectorIjNS_9allocatorIjEEE16__init_with_sizeB8ne180100IPjS5_EEvT_T0_m, symObjAddr: 0x3C58, symBinAddr: 0x100005B18, symSize: 0xB8 }
  - { offset: 0x1BB82, size: 0x8, addend: 0x0, symName: __ZNKSt3__117__compressed_pairIPjNS_9allocatorIjEEE6secondB8ne180100Ev, symObjAddr: 0x3D10, symBinAddr: 0x100005BD0, symSize: 0x24 }
  - { offset: 0x1BBA8, size: 0x8, addend: 0x0, symName: __ZNKSt3__122__compressed_pair_elemINS_9allocatorIjEELi1ELb1EE5__getB8ne180100Ev, symObjAddr: 0x3D34, symBinAddr: 0x100005BF4, symSize: 0x14 }
  - { offset: 0x1BBCE, size: 0x8, addend: 0x0, symName: __ZNSt3__117__compressed_pairIPjNS_9allocatorIjEEEC2B8ne180100IDnS3_EEOT_OT0_, symObjAddr: 0x3D48, symBinAddr: 0x100005C08, symSize: 0x44 }
  - { offset: 0x1BC26, size: 0x8, addend: 0x0, symName: __ZNSt3__122__compressed_pair_elemIPjLi0ELb0EEC2B8ne180100IDnvEEOT_, symObjAddr: 0x3D8C, symBinAddr: 0x100005C4C, symSize: 0x1C }
  - { offset: 0x1BC68, size: 0x8, addend: 0x0, symName: __ZNSt3__122__compressed_pair_elemINS_9allocatorIjEELi1ELb1EEC2B8ne180100IS2_vEEOT_, symObjAddr: 0x3DA8, symBinAddr: 0x100005C68, symSize: 0x18 }
  - { offset: 0x1BCAA, size: 0x8, addend: 0x0, symName: __ZNSt3__16vectorIjNS_9allocatorIjEEE16__destroy_vectorC1B8ne180100ERS3_, symObjAddr: 0x3E00, symBinAddr: 0x100005CC0, symSize: 0x34 }
  - { offset: 0x1BCE3, size: 0x8, addend: 0x0, symName: __ZNSt3__16vectorIjNS_9allocatorIjEEE11__vallocateB8ne180100Em, symObjAddr: 0x3E34, symBinAddr: 0x100005CF4, symSize: 0xAC }
  - { offset: 0x1BD27, size: 0x8, addend: 0x0, symName: __ZNSt3__16vectorIjNS_9allocatorIjEEE18__construct_at_endIPjS5_EEvT_T0_m, symObjAddr: 0x3EE0, symBinAddr: 0x100005DA0, symSize: 0x8C }
  - { offset: 0x1BD9D, size: 0x8, addend: 0x0, symName: __ZNSt3__128__exception_guard_exceptionsINS_6vectorIjNS_9allocatorIjEEE16__destroy_vectorEE10__completeB8ne180100Ev, symObjAddr: 0x3F6C, symBinAddr: 0x100005E2C, symSize: 0x1C }
  - { offset: 0x1BDC3, size: 0x8, addend: 0x0, symName: __ZNSt3__128__exception_guard_exceptionsINS_6vectorIjNS_9allocatorIjEEE16__destroy_vectorEED1B8ne180100Ev, symObjAddr: 0x3F88, symBinAddr: 0x100005E48, symSize: 0x2C }
  - { offset: 0x1BDED, size: 0x8, addend: 0x0, symName: __ZNSt3__128__exception_guard_exceptionsINS_6vectorIjNS_9allocatorIjEEE16__destroy_vectorEEC1B8ne180100ES5_, symObjAddr: 0x3FB4, symBinAddr: 0x100005E74, symSize: 0x34 }
  - { offset: 0x1BE25, size: 0x8, addend: 0x0, symName: __ZNSt3__128__exception_guard_exceptionsINS_6vectorIjNS_9allocatorIjEEE16__destroy_vectorEEC2B8ne180100ES5_, symObjAddr: 0x3FE8, symBinAddr: 0x100005EA8, symSize: 0x24 }
  - { offset: 0x1BE5D, size: 0x8, addend: 0x0, symName: __ZNSt3__16vectorIjNS_9allocatorIjEEE16__destroy_vectorC2B8ne180100ERS3_, symObjAddr: 0x400C, symBinAddr: 0x100005ECC, symSize: 0x20 }
  - { offset: 0x1BE96, size: 0x8, addend: 0x0, symName: __ZNKSt3__16vectorIjNS_9allocatorIjEEE8max_sizeEv, symObjAddr: 0x402C, symBinAddr: 0x100005EEC, symSize: 0x60 }
  - { offset: 0x1BEBE, size: 0x8, addend: 0x0, symName: __ZNKSt3__16vectorIjNS_9allocatorIjEEE20__throw_length_errorB8ne180100Ev, symObjAddr: 0x408C, symBinAddr: 0x100005F4C, symSize: 0x1C }
  - { offset: 0x1BEE4, size: 0x8, addend: 0x0, symName: __ZNSt3__16vectorIjNS_9allocatorIjEEE7__allocB8ne180100Ev, symObjAddr: 0x40E8, symBinAddr: 0x100005FA8, symSize: 0x28 }
  - { offset: 0x1BF0A, size: 0x8, addend: 0x0, symName: __ZNSt3__16vectorIjNS_9allocatorIjEEE9__end_capB8ne180100Ev, symObjAddr: 0x4110, symBinAddr: 0x100005FD0, symSize: 0x28 }
  - { offset: 0x1BF30, size: 0x8, addend: 0x0, symName: __ZNKSt3__16vectorIjNS_9allocatorIjEEE14__annotate_newB8ne180100Em, symObjAddr: 0x4138, symBinAddr: 0x100005FF8, symSize: 0x14 }
  - { offset: 0x1BF65, size: 0x8, addend: 0x0, symName: __ZNSt3__116allocator_traitsINS_9allocatorIjEEE8max_sizeB8ne180100IS2_vEEmRKS2_, symObjAddr: 0x4178, symBinAddr: 0x100006038, symSize: 0x24 }
  - { offset: 0x1BF93, size: 0x8, addend: 0x0, symName: __ZNSt3__114numeric_limitsIlE3maxB8ne180100Ev, symObjAddr: 0x419C, symBinAddr: 0x10000605C, symSize: 0x14 }
  - { offset: 0x1BFB2, size: 0x8, addend: 0x0, symName: __ZNKSt3__16__lessIvvEclB8ne180100ImmEEbRKT_RKT0_, symObjAddr: 0x4214, symBinAddr: 0x1000060D4, symSize: 0x34 }
  - { offset: 0x1C006, size: 0x8, addend: 0x0, symName: __ZNKSt3__19allocatorIjE8max_sizeB8ne180100Ev, symObjAddr: 0x4248, symBinAddr: 0x100006108, symSize: 0x14 }
  - { offset: 0x1C02C, size: 0x8, addend: 0x0, symName: __ZNSt3__123__libcpp_numeric_limitsIlLb1EE3maxB8ne180100Ev, symObjAddr: 0x425C, symBinAddr: 0x10000611C, symSize: 0x8 }
  - { offset: 0x1C040, size: 0x8, addend: 0x0, symName: __ZNSt12length_errorC1B8ne180100EPKc, symObjAddr: 0x42C8, symBinAddr: 0x100006188, symSize: 0x34 }
  - { offset: 0x1C078, size: 0x8, addend: 0x0, symName: __ZNSt12length_errorC2B8ne180100EPKc, symObjAddr: 0x42FC, symBinAddr: 0x1000061BC, symSize: 0x44 }
  - { offset: 0x1C0B0, size: 0x8, addend: 0x0, symName: __ZNSt3__19allocatorIjE8allocateB8ne180100Em, symObjAddr: 0x4340, symBinAddr: 0x100006200, symSize: 0x58 }
  - { offset: 0x1C0E4, size: 0x8, addend: 0x0, symName: __ZNSt3__117__compressed_pairIPjNS_9allocatorIjEEE6secondB8ne180100Ev, symObjAddr: 0x4418, symBinAddr: 0x1000062D8, symSize: 0x24 }
  - { offset: 0x1C10A, size: 0x8, addend: 0x0, symName: __ZNSt3__122__compressed_pair_elemINS_9allocatorIjEELi1ELb1EE5__getB8ne180100Ev, symObjAddr: 0x443C, symBinAddr: 0x1000062FC, symSize: 0x14 }
  - { offset: 0x1C130, size: 0x8, addend: 0x0, symName: __ZNSt3__117__compressed_pairIPjNS_9allocatorIjEEE5firstB8ne180100Ev, symObjAddr: 0x4450, symBinAddr: 0x100006310, symSize: 0x24 }
  - { offset: 0x1C156, size: 0x8, addend: 0x0, symName: __ZNSt3__122__compressed_pair_elemIPjLi0ELb0EE5__getB8ne180100Ev, symObjAddr: 0x4474, symBinAddr: 0x100006334, symSize: 0x14 }
  - { offset: 0x1C198, size: 0x8, addend: 0x0, symName: __ZNSt3__16vectorIjNS_9allocatorIjEEE21_ConstructTransactionC1B8ne180100ERS3_m, symObjAddr: 0x4488, symBinAddr: 0x100006348, symSize: 0x3C }
  - { offset: 0x1C1E0, size: 0x8, addend: 0x0, symName: __ZNSt3__16vectorIjNS_9allocatorIjEEE21_ConstructTransactionD1B8ne180100Ev, symObjAddr: 0x4544, symBinAddr: 0x100006404, symSize: 0x2C }
  - { offset: 0x1C20A, size: 0x8, addend: 0x0, symName: __ZNSt3__16vectorIjNS_9allocatorIjEEE21_ConstructTransactionC2B8ne180100ERS3_m, symObjAddr: 0x4570, symBinAddr: 0x100006430, symSize: 0x44 }
  - { offset: 0x1C275, size: 0x8, addend: 0x0, symName: __ZNSt3__14pairIPjS1_EC1B8ne180100IS1_S1_Li0EEEOT_OT0_, symObjAddr: 0x46E4, symBinAddr: 0x1000065A4, symSize: 0x3C }
  - { offset: 0x1C2D3, size: 0x8, addend: 0x0, symName: __ZNSt3__14pairIPjS1_EC2B8ne180100IS1_S1_Li0EEEOT_OT0_, symObjAddr: 0x4720, symBinAddr: 0x1000065E0, symSize: 0x34 }
  - { offset: 0x1C33C, size: 0x8, addend: 0x0, symName: __ZNKSt3__114__copy_trivialclB8ne180100IjjLi0EEENS_4pairIPT_PT0_EES4_S4_S6_, symObjAddr: 0x48D0, symBinAddr: 0x100006790, symSize: 0x48 }
  - { offset: 0x1C3A4, size: 0x8, addend: 0x0, symName: __ZNSt3__14pairIPjS1_EC1B8ne180100IRS1_S1_Li0EEEOT_OT0_, symObjAddr: 0x4A60, symBinAddr: 0x100006920, symSize: 0x3C }
  - { offset: 0x1C402, size: 0x8, addend: 0x0, symName: __ZNSt3__14pairIPjS1_EC2B8ne180100IRS1_S1_Li0EEEOT_OT0_, symObjAddr: 0x4A9C, symBinAddr: 0x10000695C, symSize: 0x34 }
  - { offset: 0x1C460, size: 0x8, addend: 0x0, symName: __ZNSt3__118__unwrap_iter_implIPjLb1EE8__unwrapB8ne180100ES1_, symObjAddr: 0x4AD0, symBinAddr: 0x100006990, symSize: 0x24 }
  - { offset: 0x1C483, size: 0x8, addend: 0x0, symName: __ZNSt3__118__unwrap_iter_implIPjLb1EE8__rewrapB8ne180100ES1_S1_, symObjAddr: 0x4B08, symBinAddr: 0x1000069C8, symSize: 0x50 }
  - { offset: 0x1C4B4, size: 0x8, addend: 0x0, symName: __ZNSt3__16vectorIjNS_9allocatorIjEEE21_ConstructTransactionD2B8ne180100Ev, symObjAddr: 0x4B58, symBinAddr: 0x100006A18, symSize: 0x20 }
  - { offset: 0x1C4DE, size: 0x8, addend: 0x0, symName: __ZNSt3__128__exception_guard_exceptionsINS_6vectorIjNS_9allocatorIjEEE16__destroy_vectorEED2B8ne180100Ev, symObjAddr: 0x4B78, symBinAddr: 0x100006A38, symSize: 0x50 }
  - { offset: 0x1C508, size: 0x8, addend: 0x0, symName: __ZNSt3__16vectorIjNS_9allocatorIjEEE16__destroy_vectorclB8ne180100Ev, symObjAddr: 0x4BC8, symBinAddr: 0x100006A88, symSize: 0x90 }
  - { offset: 0x1C52E, size: 0x8, addend: 0x0, symName: __ZNSt3__16vectorIjNS_9allocatorIjEEE7__clearB8ne180100Ev, symObjAddr: 0x4C58, symBinAddr: 0x100006B18, symSize: 0x28 }
  - { offset: 0x1C554, size: 0x8, addend: 0x0, symName: __ZNKSt3__16vectorIjNS_9allocatorIjEEE17__annotate_deleteB8ne180100Ev, symObjAddr: 0x4C80, symBinAddr: 0x100006B40, symSize: 0x10 }
  - { offset: 0x1C57A, size: 0x8, addend: 0x0, symName: __ZNSt3__116allocator_traitsINS_9allocatorIjEEE10deallocateB8ne180100ERS2_Pjm, symObjAddr: 0x4C90, symBinAddr: 0x100006B50, symSize: 0x34 }
  - { offset: 0x1C5BC, size: 0x8, addend: 0x0, symName: __ZNKSt3__16vectorIjNS_9allocatorIjEEE8capacityB8ne180100Ev, symObjAddr: 0x4CC4, symBinAddr: 0x100006B84, symSize: 0x40 }
  - { offset: 0x1C5E2, size: 0x8, addend: 0x0, symName: __ZNSt3__16vectorIjNS_9allocatorIjEEE22__base_destruct_at_endB8ne180100EPj, symObjAddr: 0x4D04, symBinAddr: 0x100006BC4, symSize: 0x8C }
  - { offset: 0x1C626, size: 0x8, addend: 0x0, symName: __ZNSt3__116allocator_traitsINS_9allocatorIjEEE7destroyB8ne180100IjvEEvRS2_PT_, symObjAddr: 0x4D90, symBinAddr: 0x100006C50, symSize: 0x2C }
  - { offset: 0x1C663, size: 0x8, addend: 0x0, symName: __ZNSt3__19allocatorIjE7destroyB8ne180100EPj, symObjAddr: 0x4DBC, symBinAddr: 0x100006C7C, symSize: 0x14 }
  - { offset: 0x1C697, size: 0x8, addend: 0x0, symName: __ZNSt3__19allocatorIjE10deallocateB8ne180100EPjm, symObjAddr: 0x4DD0, symBinAddr: 0x100006C90, symSize: 0x40 }
  - { offset: 0x1C6D9, size: 0x8, addend: 0x0, symName: __ZNKSt3__16vectorIjNS_9allocatorIjEEE9__end_capB8ne180100Ev, symObjAddr: 0x4E8C, symBinAddr: 0x100006D4C, symSize: 0x28 }
  - { offset: 0x1C6FF, size: 0x8, addend: 0x0, symName: __ZNKSt3__117__compressed_pairIPjNS_9allocatorIjEEE5firstB8ne180100Ev, symObjAddr: 0x4EB4, symBinAddr: 0x100006D74, symSize: 0x24 }
  - { offset: 0x1C725, size: 0x8, addend: 0x0, symName: __ZNKSt3__122__compressed_pair_elemIPjLi0ELb0EE5__getB8ne180100Ev, symObjAddr: 0x4ED8, symBinAddr: 0x100006D98, symSize: 0x14 }
  - { offset: 0x1C74B, size: 0x8, addend: 0x0, symName: __ZN9site_typeD2Ev, symObjAddr: 0x4EEC, symBinAddr: 0x100006DAC, symSize: 0x3C }
  - { offset: 0x1C77D, size: 0x8, addend: 0x0, symName: __ZNSt3__112basic_stringIcNS_11char_traitsIcEENS_9allocatorIcEEEC1B8ne180100ILi0EEEPKc, symObjAddr: 0x4F28, symBinAddr: 0x100006DE8, symSize: 0x34 }
  - { offset: 0x1C7BC, size: 0x8, addend: 0x0, symName: __ZNSt3__112basic_stringIcNS_11char_traitsIcEENS_9allocatorIcEEEC2B8ne180100ILi0EEEPKc, symObjAddr: 0x4F5C, symBinAddr: 0x100006E1C, symSize: 0x58 }
  - { offset: 0x1C801, size: 0x8, addend: 0x0, symName: __ZNSt3__117__compressed_pairINS_12basic_stringIcNS_11char_traitsIcEENS_9allocatorIcEEE5__repES5_EC1B8ne180100INS_18__default_init_tagESA_EEOT_OT0_, symObjAddr: 0x4FB4, symBinAddr: 0x100006E74, symSize: 0x3C }
  - { offset: 0x1C859, size: 0x8, addend: 0x0, symName: __ZNSt3__111char_traitsIcE6lengthB8ne180100EPKc, symObjAddr: 0x4FF0, symBinAddr: 0x100006EB0, symSize: 0x34 }
  - { offset: 0x1C87C, size: 0x8, addend: 0x0, symName: __ZNSt3__117__compressed_pairINS_12basic_stringIcNS_11char_traitsIcEENS_9allocatorIcEEE5__repES5_EC2B8ne180100INS_18__default_init_tagESA_EEOT_OT0_, symObjAddr: 0x5024, symBinAddr: 0x100006EE4, symSize: 0x3C }
  - { offset: 0x1C8D4, size: 0x8, addend: 0x0, symName: __ZNSt3__122__compressed_pair_elemINS_12basic_stringIcNS_11char_traitsIcEENS_9allocatorIcEEE5__repELi0ELb0EEC2B8ne180100ENS_18__default_init_tagE, symObjAddr: 0x5060, symBinAddr: 0x100006F20, symSize: 0x14 }
  - { offset: 0x1C909, size: 0x8, addend: 0x0, symName: __ZNSt3__122__compressed_pair_elemINS_9allocatorIcEELi1ELb1EEC2B8ne180100ENS_18__default_init_tagE, symObjAddr: 0x5074, symBinAddr: 0x100006F34, symSize: 0x2C }
  - { offset: 0x1C93E, size: 0x8, addend: 0x0, symName: __ZNSt3__19allocatorIcEC2B8ne180100Ev, symObjAddr: 0x50A0, symBinAddr: 0x100006F60, symSize: 0x2C }
  - { offset: 0x1C968, size: 0x8, addend: 0x0, symName: __ZNSt3__116__non_trivial_ifILb1ENS_9allocatorIcEEEC2B8ne180100Ev, symObjAddr: 0x50CC, symBinAddr: 0x100006F8C, symSize: 0x14 }
  - { offset: 0x1C992, size: 0x8, addend: 0x0, symName: __ZNKSt3__111__wrap_iterIPjE4baseB8ne180100Ev, symObjAddr: 0x514C, symBinAddr: 0x10000700C, symSize: 0x18 }
  - { offset: 0x1C9DA, size: 0x8, addend: 0x0, symName: __ZNKSt3__16chrono10time_pointINS0_12steady_clockENS0_8durationIxNS_5ratioILl1ELl1000000000EEEEEE16time_since_epochB8ne180100Ev, symObjAddr: 0x51D0, symBinAddr: 0x100007090, symSize: 0x20 }
  - { offset: 0x1CA00, size: 0x8, addend: 0x0, symName: __ZNKSt3__16chrono8durationIxNS_5ratioILl1ELl1000000000EEEE5countB8ne180100Ev, symObjAddr: 0x51F0, symBinAddr: 0x1000070B0, symSize: 0x18 }
  - { offset: 0x1CA31, size: 0x8, addend: 0x0, symName: __ZNSt3__16chrono8durationIxNS_5ratioILl1ELl1000000000EEEEC1B8ne180100IxLi0EEERKT_, symObjAddr: 0x5208, symBinAddr: 0x1000070C8, symSize: 0x34 }
  - { offset: 0x1CA78, size: 0x8, addend: 0x0, symName: __ZNSt3__16chrono8durationIxNS_5ratioILl1ELl1000000000EEEEC2B8ne180100IxLi0EEERKT_, symObjAddr: 0x523C, symBinAddr: 0x1000070FC, symSize: 0x24 }
  - { offset: 0x1CABF, size: 0x8, addend: 0x0, symName: __ZNSt3__16chrono8durationIdNS_5ratioILl1ELl1EEEEC2B8ne180100IxNS2_ILl1ELl1000000000EEELi0EEERKNS1_IT_T0_EE, symObjAddr: 0x5260, symBinAddr: 0x100007120, symSize: 0x44 }
  - { offset: 0x1CB0F, size: 0x8, addend: 0x0, symName: __ZNSt3__16chrono8durationIdNS_5ratioILl1ELl1EEEEC1B8ne180100IdLi0EEERKT_, symObjAddr: 0x5320, symBinAddr: 0x1000071E0, symSize: 0x34 }
  - { offset: 0x1CB56, size: 0x8, addend: 0x0, symName: __ZNSt3__16chrono8durationIdNS_5ratioILl1ELl1EEEEC2B8ne180100IdLi0EEERKT_, symObjAddr: 0x5354, symBinAddr: 0x100007214, symSize: 0x24 }
  - { offset: 0x1CB9D, size: 0x8, addend: 0x0, symName: __ZNKSt3__111__wrap_iterIPiE4baseB8ne180100Ev, symObjAddr: 0x53C0, symBinAddr: 0x100007280, symSize: 0x18 }
  - { offset: 0x1CBC3, size: 0x8, addend: 0x0, symName: __ZNKSt3__111__wrap_iterIPNS_6vectorIiNS_9allocatorIiEEEEE4baseB8ne180100Ev, symObjAddr: 0x5420, symBinAddr: 0x1000072E0, symSize: 0x18 }
  - { offset: 0x1CBE9, size: 0x8, addend: 0x0, symName: __ZNSt3__114basic_ifstreamIcNS_11char_traitsIcEEED2Ev, symObjAddr: 0x5438, symBinAddr: 0x1000072F8, symSize: 0x64 }
  - { offset: 0x1CC23, size: 0x8, addend: 0x0, symName: __ZTv0_n24_NSt3__114basic_ifstreamIcNS_11char_traitsIcEEED1Ev, symObjAddr: 0x549C, symBinAddr: 0x10000735C, symSize: 0x28 }
  - { offset: 0x1CC3A, size: 0x8, addend: 0x0, symName: __ZNSt3__16vectorIjNS_9allocatorIjEEED2B8ne180100Ev, symObjAddr: 0x54C4, symBinAddr: 0x100007384, symSize: 0x40 }
  - { offset: 0x1CC64, size: 0x8, addend: 0x0, symName: __ZNSt3__16vectorI9site_typeNS_9allocatorIS1_EEEC2B8ne180100Ev, symObjAddr: 0x5504, symBinAddr: 0x1000073C4, symSize: 0x4C }
  - { offset: 0x1CC8E, size: 0x8, addend: 0x0, symName: __ZNSt3__117__compressed_pairIP9site_typeNS_9allocatorIS1_EEEC1B8ne180100IDnNS_18__default_init_tagEEEOT_OT0_, symObjAddr: 0x5550, symBinAddr: 0x100007410, symSize: 0x3C }
  - { offset: 0x1CCE6, size: 0x8, addend: 0x0, symName: __ZNSt3__117__compressed_pairIP9site_typeNS_9allocatorIS1_EEEC2B8ne180100IDnNS_18__default_init_tagEEEOT_OT0_, symObjAddr: 0x558C, symBinAddr: 0x10000744C, symSize: 0x40 }
  - { offset: 0x1CD3E, size: 0x8, addend: 0x0, symName: __ZNSt3__122__compressed_pair_elemIP9site_typeLi0ELb0EEC2B8ne180100IDnvEEOT_, symObjAddr: 0x55CC, symBinAddr: 0x10000748C, symSize: 0x1C }
  - { offset: 0x1CD80, size: 0x8, addend: 0x0, symName: __ZNSt3__122__compressed_pair_elemINS_9allocatorI9site_typeEELi1ELb1EEC2B8ne180100ENS_18__default_init_tagE, symObjAddr: 0x55E8, symBinAddr: 0x1000074A8, symSize: 0x2C }
  - { offset: 0x1CDB5, size: 0x8, addend: 0x0, symName: __ZNSt3__19allocatorI9site_typeEC2B8ne180100Ev, symObjAddr: 0x5614, symBinAddr: 0x1000074D4, symSize: 0x2C }
  - { offset: 0x1CDDF, size: 0x8, addend: 0x0, symName: __ZNSt3__116__non_trivial_ifILb1ENS_9allocatorI9site_typeEEEC2B8ne180100Ev, symObjAddr: 0x5640, symBinAddr: 0x100007500, symSize: 0x14 }
  - { offset: 0x1CE09, size: 0x8, addend: 0x0, symName: __ZNSt3__16vectorI9site_typeNS_9allocatorIS1_EEED2B8ne180100Ev, symObjAddr: 0x5654, symBinAddr: 0x100007514, symSize: 0x44 }
  - { offset: 0x1CE33, size: 0x8, addend: 0x0, symName: __ZNSt3__16vectorI9site_typeNS_9allocatorIS1_EEE16__destroy_vectorC1B8ne180100ERS4_, symObjAddr: 0x5698, symBinAddr: 0x100007558, symSize: 0x34 }
  - { offset: 0x1CE6C, size: 0x8, addend: 0x0, symName: __ZNSt3__16vectorI9site_typeNS_9allocatorIS1_EEE16__destroy_vectorclB8ne180100Ev, symObjAddr: 0x56CC, symBinAddr: 0x10000758C, symSize: 0x90 }
  - { offset: 0x1CE92, size: 0x8, addend: 0x0, symName: __ZNSt3__16vectorI9site_typeNS_9allocatorIS1_EEE16__destroy_vectorC2B8ne180100ERS4_, symObjAddr: 0x575C, symBinAddr: 0x10000761C, symSize: 0x20 }
  - { offset: 0x1CECB, size: 0x8, addend: 0x0, symName: __ZNSt3__16vectorI9site_typeNS_9allocatorIS1_EEE7__clearB8ne180100Ev, symObjAddr: 0x577C, symBinAddr: 0x10000763C, symSize: 0x28 }
  - { offset: 0x1CEF1, size: 0x8, addend: 0x0, symName: __ZNKSt3__16vectorI9site_typeNS_9allocatorIS1_EEE17__annotate_deleteB8ne180100Ev, symObjAddr: 0x57A4, symBinAddr: 0x100007664, symSize: 0x10 }
  - { offset: 0x1CF17, size: 0x8, addend: 0x0, symName: __ZNSt3__116allocator_traitsINS_9allocatorI9site_typeEEE10deallocateB8ne180100ERS3_PS2_m, symObjAddr: 0x57B4, symBinAddr: 0x100007674, symSize: 0x34 }
  - { offset: 0x1CF59, size: 0x8, addend: 0x0, symName: __ZNSt3__16vectorI9site_typeNS_9allocatorIS1_EEE7__allocB8ne180100Ev, symObjAddr: 0x57E8, symBinAddr: 0x1000076A8, symSize: 0x28 }
  - { offset: 0x1CF7F, size: 0x8, addend: 0x0, symName: __ZNKSt3__16vectorI9site_typeNS_9allocatorIS1_EEE8capacityB8ne180100Ev, symObjAddr: 0x5810, symBinAddr: 0x1000076D0, symSize: 0x40 }
  - { offset: 0x1CFA5, size: 0x8, addend: 0x0, symName: __ZNSt3__16vectorI9site_typeNS_9allocatorIS1_EEE22__base_destruct_at_endB8ne180100EPS1_, symObjAddr: 0x5850, symBinAddr: 0x100007710, symSize: 0x8C }
  - { offset: 0x1CFE9, size: 0x8, addend: 0x0, symName: __ZNSt3__116allocator_traitsINS_9allocatorI9site_typeEEE7destroyB8ne180100IS2_vEEvRS3_PT_, symObjAddr: 0x58DC, symBinAddr: 0x10000779C, symSize: 0x2C }
  - { offset: 0x1D026, size: 0x8, addend: 0x0, symName: __ZNSt3__19allocatorI9site_typeE7destroyB8ne180100EPS1_, symObjAddr: 0x591C, symBinAddr: 0x1000077DC, symSize: 0x28 }
  - { offset: 0x1D05A, size: 0x8, addend: 0x0, symName: __ZNSt3__19allocatorI9site_typeE10deallocateB8ne180100EPS1_m, symObjAddr: 0x5944, symBinAddr: 0x100007804, symSize: 0x44 }
  - { offset: 0x1D09C, size: 0x8, addend: 0x0, symName: __ZNSt3__117__compressed_pairIP9site_typeNS_9allocatorIS1_EEE6secondB8ne180100Ev, symObjAddr: 0x5988, symBinAddr: 0x100007848, symSize: 0x24 }
  - { offset: 0x1D0C2, size: 0x8, addend: 0x0, symName: __ZNSt3__122__compressed_pair_elemINS_9allocatorI9site_typeEELi1ELb1EE5__getB8ne180100Ev, symObjAddr: 0x59AC, symBinAddr: 0x10000786C, symSize: 0x14 }
  - { offset: 0x1D0E8, size: 0x8, addend: 0x0, symName: __ZNKSt3__16vectorI9site_typeNS_9allocatorIS1_EEE9__end_capB8ne180100Ev, symObjAddr: 0x59C0, symBinAddr: 0x100007880, symSize: 0x28 }
  - { offset: 0x1D10E, size: 0x8, addend: 0x0, symName: __ZNKSt3__117__compressed_pairIP9site_typeNS_9allocatorIS1_EEE5firstB8ne180100Ev, symObjAddr: 0x59E8, symBinAddr: 0x1000078A8, symSize: 0x24 }
  - { offset: 0x1D134, size: 0x8, addend: 0x0, symName: __ZNKSt3__122__compressed_pair_elemIP9site_typeLi0ELb0EE5__getB8ne180100Ev, symObjAddr: 0x5A0C, symBinAddr: 0x1000078CC, symSize: 0x14 }
  - { offset: 0x1D15A, size: 0x8, addend: 0x0, symName: __ZNSt3__19basic_iosIcNS_11char_traitsIcEEEC2B8ne180100Ev, symObjAddr: 0x5A20, symBinAddr: 0x1000078E0, symSize: 0x3C }
  - { offset: 0x1D184, size: 0x8, addend: 0x0, symName: __ZNSt3__113basic_istreamIcNS_11char_traitsIcEEEC2B8ne180100EPNS_15basic_streambufIcS2_EE, symObjAddr: 0x5A5C, symBinAddr: 0x10000791C, symSize: 0x64 }
  - { offset: 0x1D1C9, size: 0x8, addend: 0x0, symName: __ZNSt3__18ios_baseC2B8ne180100Ev, symObjAddr: 0x5AC0, symBinAddr: 0x100007980, symSize: 0x24 }
  - { offset: 0x1D1F3, size: 0x8, addend: 0x0, symName: __ZNSt3__19basic_iosIcNS_11char_traitsIcEEE4initB8ne180100EPNS_15basic_streambufIcS2_EE, symObjAddr: 0x5AE4, symBinAddr: 0x1000079A4, symSize: 0x44 }
  - { offset: 0x1D22A, size: 0x8, addend: 0x0, symName: __ZNSt3__111char_traitsIcE3eofB8ne180100Ev, symObjAddr: 0x5B28, symBinAddr: 0x1000079E8, symSize: 0x8 }
  - { offset: 0x1D23E, size: 0x8, addend: 0x0, symName: __ZNKSt3__19basic_iosIcNS_11char_traitsIcEEE4failB8ne180100Ev, symObjAddr: 0x5B30, symBinAddr: 0x1000079F0, symSize: 0x28 }
  - { offset: 0x1D264, size: 0x8, addend: 0x0, symName: __ZNKSt3__18ios_base4failB8ne180100Ev, symObjAddr: 0x5B58, symBinAddr: 0x100007A18, symSize: 0x28 }
  - { offset: 0x1D28C, size: 0x8, addend: 0x0, symName: __ZNSt3__16vectorIZ4mainE4LinkNS_9allocatorIS1_EEEC2B8ne180100Ev, symObjAddr: 0x5B80, symBinAddr: 0x100007A40, symSize: 0x4C }
  - { offset: 0x1D2B6, size: 0x8, addend: 0x0, symName: __ZNSt3__117__compressed_pairIPZ4mainE4LinkNS_9allocatorIS1_EEEC1B8ne180100IDnNS_18__default_init_tagEEEOT_OT0_, symObjAddr: 0x5BCC, symBinAddr: 0x100007A8C, symSize: 0x3C }
  - { offset: 0x1D30E, size: 0x8, addend: 0x0, symName: __ZNSt3__117__compressed_pairIPZ4mainE4LinkNS_9allocatorIS1_EEEC2B8ne180100IDnNS_18__default_init_tagEEEOT_OT0_, symObjAddr: 0x5C08, symBinAddr: 0x100007AC8, symSize: 0x40 }
  - { offset: 0x1D366, size: 0x8, addend: 0x0, symName: __ZNSt3__122__compressed_pair_elemIPZ4mainE4LinkLi0ELb0EEC2B8ne180100IDnvEEOT_, symObjAddr: 0x5C48, symBinAddr: 0x100007B08, symSize: 0x1C }
  - { offset: 0x1D3A8, size: 0x8, addend: 0x0, symName: __ZNSt3__122__compressed_pair_elemINS_9allocatorIZ4mainE4LinkEELi1ELb1EEC2B8ne180100ENS_18__default_init_tagE, symObjAddr: 0x5C64, symBinAddr: 0x100007B24, symSize: 0x2C }
  - { offset: 0x1D3DD, size: 0x8, addend: 0x0, symName: __ZNSt3__19allocatorIZ4mainE4LinkEC2B8ne180100Ev, symObjAddr: 0x5C90, symBinAddr: 0x100007B50, symSize: 0x2C }
  - { offset: 0x1D407, size: 0x8, addend: 0x0, symName: __ZNSt3__116__non_trivial_ifILb1ENS_9allocatorIZ4mainE4LinkEEEC2B8ne180100Ev, symObjAddr: 0x5CBC, symBinAddr: 0x100007B7C, symSize: 0x14 }
  - { offset: 0x1D431, size: 0x8, addend: 0x0, symName: __ZNSt3__16vectorIZ4mainE4LinkNS_9allocatorIS1_EEED2B8ne180100Ev, symObjAddr: 0x5CD0, symBinAddr: 0x100007B90, symSize: 0x44 }
  - { offset: 0x1D45B, size: 0x8, addend: 0x0, symName: __ZNSt3__16vectorIZ4mainE4LinkNS_9allocatorIS1_EEE16__destroy_vectorC1B8ne180100ERS4_, symObjAddr: 0x5D14, symBinAddr: 0x100007BD4, symSize: 0x34 }
  - { offset: 0x1D494, size: 0x8, addend: 0x0, symName: __ZNSt3__16vectorIZ4mainE4LinkNS_9allocatorIS1_EEE16__destroy_vectorclB8ne180100Ev, symObjAddr: 0x5D48, symBinAddr: 0x100007C08, symSize: 0x90 }
  - { offset: 0x1D4BA, size: 0x8, addend: 0x0, symName: __ZNSt3__16vectorIZ4mainE4LinkNS_9allocatorIS1_EEE16__destroy_vectorC2B8ne180100ERS4_, symObjAddr: 0x5DD8, symBinAddr: 0x100007C98, symSize: 0x20 }
  - { offset: 0x1D4F3, size: 0x8, addend: 0x0, symName: __ZNSt3__16vectorIZ4mainE4LinkNS_9allocatorIS1_EEE7__clearB8ne180100Ev, symObjAddr: 0x5DF8, symBinAddr: 0x100007CB8, symSize: 0x28 }
  - { offset: 0x1D519, size: 0x8, addend: 0x0, symName: __ZNKSt3__16vectorIZ4mainE4LinkNS_9allocatorIS1_EEE17__annotate_deleteB8ne180100Ev, symObjAddr: 0x5E20, symBinAddr: 0x100007CE0, symSize: 0x10 }
  - { offset: 0x1D53F, size: 0x8, addend: 0x0, symName: __ZNSt3__116allocator_traitsINS_9allocatorIZ4mainE4LinkEEE10deallocateB8ne180100ERS3_PS2_m, symObjAddr: 0x5E30, symBinAddr: 0x100007CF0, symSize: 0x34 }
  - { offset: 0x1D581, size: 0x8, addend: 0x0, symName: __ZNSt3__16vectorIZ4mainE4LinkNS_9allocatorIS1_EEE7__allocB8ne180100Ev, symObjAddr: 0x5E64, symBinAddr: 0x100007D24, symSize: 0x28 }
  - { offset: 0x1D5A7, size: 0x8, addend: 0x0, symName: __ZNKSt3__16vectorIZ4mainE4LinkNS_9allocatorIS1_EEE8capacityB8ne180100Ev, symObjAddr: 0x5E8C, symBinAddr: 0x100007D4C, symSize: 0x40 }
  - { offset: 0x1D5CD, size: 0x8, addend: 0x0, symName: __ZNSt3__16vectorIZ4mainE4LinkNS_9allocatorIS1_EEE22__base_destruct_at_endB8ne180100EPS1_, symObjAddr: 0x5ECC, symBinAddr: 0x100007D8C, symSize: 0x8C }
  - { offset: 0x1D611, size: 0x8, addend: 0x0, symName: __ZNSt3__116allocator_traitsINS_9allocatorIZ4mainE4LinkEEE7destroyB8ne180100IS2_vEEvRS3_PT_, symObjAddr: 0x5F58, symBinAddr: 0x100007E18, symSize: 0x2C }
  - { offset: 0x1D64E, size: 0x8, addend: 0x0, symName: __ZNSt3__19allocatorIZ4mainE4LinkE7destroyB8ne180100EPS1_, symObjAddr: 0x5F98, symBinAddr: 0x100007E58, symSize: 0x14 }
  - { offset: 0x1D682, size: 0x8, addend: 0x0, symName: __ZNSt3__19allocatorIZ4mainE4LinkE10deallocateB8ne180100EPS1_m, symObjAddr: 0x5FAC, symBinAddr: 0x100007E6C, symSize: 0x40 }
  - { offset: 0x1D6C4, size: 0x8, addend: 0x0, symName: __ZNSt3__117__compressed_pairIPZ4mainE4LinkNS_9allocatorIS1_EEE6secondB8ne180100Ev, symObjAddr: 0x5FEC, symBinAddr: 0x100007EAC, symSize: 0x24 }
  - { offset: 0x1D6EA, size: 0x8, addend: 0x0, symName: __ZNSt3__122__compressed_pair_elemINS_9allocatorIZ4mainE4LinkEELi1ELb1EE5__getB8ne180100Ev, symObjAddr: 0x6010, symBinAddr: 0x100007ED0, symSize: 0x14 }
  - { offset: 0x1D710, size: 0x8, addend: 0x0, symName: __ZNKSt3__16vectorIZ4mainE4LinkNS_9allocatorIS1_EEE9__end_capB8ne180100Ev, symObjAddr: 0x6024, symBinAddr: 0x100007EE4, symSize: 0x28 }
  - { offset: 0x1D736, size: 0x8, addend: 0x0, symName: __ZNKSt3__117__compressed_pairIPZ4mainE4LinkNS_9allocatorIS1_EEE5firstB8ne180100Ev, symObjAddr: 0x604C, symBinAddr: 0x100007F0C, symSize: 0x24 }
  - { offset: 0x1D75C, size: 0x8, addend: 0x0, symName: __ZNKSt3__122__compressed_pair_elemIPZ4mainE4LinkLi0ELb0EE5__getB8ne180100Ev, symObjAddr: 0x6070, symBinAddr: 0x100007F30, symSize: 0x14 }
  - { offset: 0x1D782, size: 0x8, addend: 0x0, symName: __ZNKSt3__16vectorIZ4mainE4LinkNS_9allocatorIS1_EEE8max_sizeEv, symObjAddr: 0x6084, symBinAddr: 0x100007F44, symSize: 0x60 }
  - { offset: 0x1D7AA, size: 0x8, addend: 0x0, symName: __ZNKSt3__16vectorIZ4mainE4LinkNS_9allocatorIS1_EEE20__throw_length_errorB8ne180100Ev, symObjAddr: 0x60E4, symBinAddr: 0x100007FA4, symSize: 0x1C }
  - { offset: 0x1D7D0, size: 0x8, addend: 0x0, symName: __ZNSt3__114__split_bufferIZ4mainE4LinkRNS_9allocatorIS1_EEEC1EmmS4_, symObjAddr: 0x6100, symBinAddr: 0x100007FC0, symSize: 0x44 }
  - { offset: 0x1D826, size: 0x8, addend: 0x0, symName: __ZNSt3__114__split_bufferIZ4mainE4LinkRNS_9allocatorIS1_EEED1Ev, symObjAddr: 0x6254, symBinAddr: 0x100008114, symSize: 0x2C }
  - { offset: 0x1D85D, size: 0x8, addend: 0x0, symName: __ZNSt3__116allocator_traitsINS_9allocatorIZ4mainE4LinkEEE8max_sizeB8ne180100IS3_vEEmRKS3_, symObjAddr: 0x6280, symBinAddr: 0x100008140, symSize: 0x24 }
  - { offset: 0x1D88B, size: 0x8, addend: 0x0, symName: __ZNKSt3__16vectorIZ4mainE4LinkNS_9allocatorIS1_EEE7__allocB8ne180100Ev, symObjAddr: 0x62A4, symBinAddr: 0x100008164, symSize: 0x28 }
  - { offset: 0x1D8B1, size: 0x8, addend: 0x0, symName: __ZNKSt3__19allocatorIZ4mainE4LinkE8max_sizeB8ne180100Ev, symObjAddr: 0x62CC, symBinAddr: 0x10000818C, symSize: 0x14 }
  - { offset: 0x1D8D7, size: 0x8, addend: 0x0, symName: __ZNKSt3__117__compressed_pairIPZ4mainE4LinkNS_9allocatorIS1_EEE6secondB8ne180100Ev, symObjAddr: 0x62E0, symBinAddr: 0x1000081A0, symSize: 0x24 }
  - { offset: 0x1D8FD, size: 0x8, addend: 0x0, symName: __ZNKSt3__122__compressed_pair_elemINS_9allocatorIZ4mainE4LinkEELi1ELb1EE5__getB8ne180100Ev, symObjAddr: 0x6304, symBinAddr: 0x1000081C4, symSize: 0x14 }
  - { offset: 0x1D923, size: 0x8, addend: 0x0, symName: __ZNSt3__114__split_bufferIZ4mainE4LinkRNS_9allocatorIS1_EEEC2EmmS4_, symObjAddr: 0x6318, symBinAddr: 0x1000081D8, symSize: 0xD4 }
  - { offset: 0x1D997, size: 0x8, addend: 0x0, symName: __ZNSt3__117__compressed_pairIPZ4mainE4LinkRNS_9allocatorIS1_EEEC1B8ne180100IDnS5_EEOT_OT0_, symObjAddr: 0x63EC, symBinAddr: 0x1000082AC, symSize: 0x3C }
  - { offset: 0x1D9EF, size: 0x8, addend: 0x0, symName: __ZNSt3__114__split_bufferIZ4mainE4LinkRNS_9allocatorIS1_EEE7__allocB8ne180100Ev, symObjAddr: 0x6468, symBinAddr: 0x100008328, symSize: 0x28 }
  - { offset: 0x1DA15, size: 0x8, addend: 0x0, symName: __ZNSt3__114__split_bufferIZ4mainE4LinkRNS_9allocatorIS1_EEE9__end_capB8ne180100Ev, symObjAddr: 0x6490, symBinAddr: 0x100008350, symSize: 0x28 }
  - { offset: 0x1DA3B, size: 0x8, addend: 0x0, symName: __ZNSt3__117__compressed_pairIPZ4mainE4LinkRNS_9allocatorIS1_EEEC2B8ne180100IDnS5_EEOT_OT0_, symObjAddr: 0x64B8, symBinAddr: 0x100008378, symSize: 0x48 }
  - { offset: 0x1DA93, size: 0x8, addend: 0x0, symName: __ZNSt3__122__compressed_pair_elemIRNS_9allocatorIZ4mainE4LinkEELi1ELb0EEC2B8ne180100IS4_vEEOT_, symObjAddr: 0x6500, symBinAddr: 0x1000083C0, symSize: 0x20 }
  - { offset: 0x1DAD5, size: 0x8, addend: 0x0, symName: __ZNSt3__19allocatorIZ4mainE4LinkE8allocateB8ne180100Em, symObjAddr: 0x6520, symBinAddr: 0x1000083E0, symSize: 0x58 }
  - { offset: 0x1DB09, size: 0x8, addend: 0x0, symName: __ZNSt3__117__compressed_pairIPZ4mainE4LinkRNS_9allocatorIS1_EEE6secondB8ne180100Ev, symObjAddr: 0x6578, symBinAddr: 0x100008438, symSize: 0x28 }
  - { offset: 0x1DB2F, size: 0x8, addend: 0x0, symName: __ZNSt3__122__compressed_pair_elemIRNS_9allocatorIZ4mainE4LinkEELi1ELb0EE5__getB8ne180100Ev, symObjAddr: 0x65A0, symBinAddr: 0x100008460, symSize: 0x18 }
  - { offset: 0x1DB55, size: 0x8, addend: 0x0, symName: __ZNSt3__117__compressed_pairIPZ4mainE4LinkRNS_9allocatorIS1_EEE5firstB8ne180100Ev, symObjAddr: 0x65B8, symBinAddr: 0x100008478, symSize: 0x24 }
  - { offset: 0x1DB7B, size: 0x8, addend: 0x0, symName: __ZNSt3__122__compressed_pair_elemIPZ4mainE4LinkLi0ELb0EE5__getB8ne180100Ev, symObjAddr: 0x65DC, symBinAddr: 0x10000849C, symSize: 0x14 }
  - { offset: 0x1DBA1, size: 0x8, addend: 0x0, symName: __ZNSt3__116reverse_iteratorIPZ4mainE4LinkEC1B8ne180100ES2_, symObjAddr: 0x6668, symBinAddr: 0x100008528, symSize: 0x34 }
  - { offset: 0x1DBD9, size: 0x8, addend: 0x0, symName: __ZNKSt3__116reverse_iteratorIPZ4mainE4LinkE4baseB8ne180100Ev, symObjAddr: 0x669C, symBinAddr: 0x10000855C, symSize: 0x18 }
  - { offset: 0x1DBFF, size: 0x8, addend: 0x0, symName: __ZNSt3__16vectorIZ4mainE4LinkNS_9allocatorIS1_EEE9__end_capB8ne180100Ev, symObjAddr: 0x66F0, symBinAddr: 0x1000085B0, symSize: 0x28 }
  - { offset: 0x1DC25, size: 0x8, addend: 0x0, symName: __ZNKSt3__16vectorIZ4mainE4LinkNS_9allocatorIS1_EEE14__annotate_newB8ne180100Em, symObjAddr: 0x6718, symBinAddr: 0x1000085D8, symSize: 0x14 }
  - { offset: 0x1DC82, size: 0x8, addend: 0x0, symName: __ZNKSt3__111__move_loopINS_17_ClassicAlgPolicyEEclB8ne180100INS_16reverse_iteratorIPZ4mainE4LinkEES7_S7_EENS_4pairIT_T1_EES9_T0_SA_, symObjAddr: 0x6A1C, symBinAddr: 0x1000088DC, symSize: 0xA0 }
  - { offset: 0x1DCF3, size: 0x8, addend: 0x0, symName: __ZNSt3__18_IterOpsINS_17_ClassicAlgPolicyEE11__iter_moveB8ne180100IRNS_16reverse_iteratorIPZ4mainE4LinkEELi0EEEDTclsr3stdE4movedeclsr3stdE7declvalIRT_EEEEOS9_, symObjAddr: 0x6C50, symBinAddr: 0x100008B10, symSize: 0x28 }
  - { offset: 0x1DD25, size: 0x8, addend: 0x0, symName: __ZNKSt3__116reverse_iteratorIPZ4mainE4LinkEdeB8ne180100Ev, symObjAddr: 0x6C78, symBinAddr: 0x100008B38, symSize: 0x28 }
  - { offset: 0x1DD59, size: 0x8, addend: 0x0, symName: __ZNSt3__116reverse_iteratorIPZ4mainE4LinkEppB8ne180100Ev, symObjAddr: 0x6CA0, symBinAddr: 0x100008B60, symSize: 0x20 }
  - { offset: 0x1DD7F, size: 0x8, addend: 0x0, symName: __ZNSt3__18_IterOpsINS_17_ClassicAlgPolicyEE25__validate_iter_referenceB8ne180100IRNS_16reverse_iteratorIPZ4mainE4LinkEEEEvv, symObjAddr: 0x6CC0, symBinAddr: 0x100008B80, symSize: 0x4 }
  - { offset: 0x1DD9D, size: 0x8, addend: 0x0, symName: __ZNSt3__118__unwrap_iter_implINS_16reverse_iteratorIPZ4mainE4LinkEELb0EE8__unwrapB8ne180100ES4_, symObjAddr: 0x6CC4, symBinAddr: 0x100008B84, symSize: 0x24 }
  - { offset: 0x1DDC6, size: 0x8, addend: 0x0, symName: __ZNSt3__14pairINS_16reverse_iteratorIPZ4mainE4LinkEES4_EC1B8ne180100IS4_S4_Li0EEEOT_OT0_, symObjAddr: 0x6CE8, symBinAddr: 0x100008BA8, symSize: 0x3C }
  - { offset: 0x1DE24, size: 0x8, addend: 0x0, symName: __ZNSt3__14pairINS_16reverse_iteratorIPZ4mainE4LinkEES4_EC2B8ne180100IS4_S4_Li0EEEOT_OT0_, symObjAddr: 0x6D24, symBinAddr: 0x100008BE4, symSize: 0x34 }
  - { offset: 0x1DE82, size: 0x8, addend: 0x0, symName: __ZNSt3__118__unwrap_iter_implINS_16reverse_iteratorIPZ4mainE4LinkEELb0EE8__rewrapB8ne180100ES4_S4_, symObjAddr: 0x6D58, symBinAddr: 0x100008C18, symSize: 0x2C }
  - { offset: 0x1DEB0, size: 0x8, addend: 0x0, symName: __ZNSt3__116reverse_iteratorIPZ4mainE4LinkEC2B8ne180100ES2_, symObjAddr: 0x6D84, symBinAddr: 0x100008C44, symSize: 0x28 }
  - { offset: 0x1DEE8, size: 0x8, addend: 0x0, symName: __ZNSt3__117__compressed_pairIPZ4mainE4LinkNS_9allocatorIS1_EEE5firstB8ne180100Ev, symObjAddr: 0x6DAC, symBinAddr: 0x100008C6C, symSize: 0x24 }
  - { offset: 0x1DF0E, size: 0x8, addend: 0x0, symName: __ZNSt3__114__split_bufferIZ4mainE4LinkRNS_9allocatorIS1_EEED2Ev, symObjAddr: 0x6DD0, symBinAddr: 0x100008C90, symSize: 0x8C }
  - { offset: 0x1DF3A, size: 0x8, addend: 0x0, symName: __ZNSt3__114__split_bufferIZ4mainE4LinkRNS_9allocatorIS1_EEE5clearB8ne180100Ev, symObjAddr: 0x6E5C, symBinAddr: 0x100008D1C, symSize: 0x28 }
  - { offset: 0x1DF60, size: 0x8, addend: 0x0, symName: __ZNKSt3__114__split_bufferIZ4mainE4LinkRNS_9allocatorIS1_EEE8capacityB8ne180100Ev, symObjAddr: 0x6E84, symBinAddr: 0x100008D44, symSize: 0x40 }
  - { offset: 0x1DF86, size: 0x8, addend: 0x0, symName: __ZNSt3__114__split_bufferIZ4mainE4LinkRNS_9allocatorIS1_EEE17__destruct_at_endB8ne180100EPS1_, symObjAddr: 0x6EC4, symBinAddr: 0x100008D84, symSize: 0x2C }
  - { offset: 0x1DFBA, size: 0x8, addend: 0x0, symName: __ZNSt3__114__split_bufferIZ4mainE4LinkRNS_9allocatorIS1_EEE17__destruct_at_endB8ne180100EPS1_NS_17integral_constantIbLb0EEE, symObjAddr: 0x6EF0, symBinAddr: 0x100008DB0, symSize: 0x80 }
  - { offset: 0x1DFFB, size: 0x8, addend: 0x0, symName: __ZNKSt3__114__split_bufferIZ4mainE4LinkRNS_9allocatorIS1_EEE9__end_capB8ne180100Ev, symObjAddr: 0x6F70, symBinAddr: 0x100008E30, symSize: 0x28 }
  - { offset: 0x1E021, size: 0x8, addend: 0x0, symName: __ZNKSt3__117__compressed_pairIPZ4mainE4LinkRNS_9allocatorIS1_EEE5firstB8ne180100Ev, symObjAddr: 0x6F98, symBinAddr: 0x100008E58, symSize: 0x24 }
  - { offset: 0x1E047, size: 0x8, addend: 0x0, symName: __ZNSt3__112basic_stringIcNS_11char_traitsIcEENS_9allocatorIcEEEC2B8ne180100Ev, symObjAddr: 0x6FBC, symBinAddr: 0x100008E7C, symSize: 0x48 }
  - { offset: 0x1E077, size: 0x8, addend: 0x0, symName: __ZNSt3__117__compressed_pairINS_12basic_stringIcNS_11char_traitsIcEENS_9allocatorIcEEE5__repES5_EC1B8ne180100INS_16__value_init_tagENS_18__default_init_tagEEEOT_OT0_, symObjAddr: 0x7004, symBinAddr: 0x100008EC4, symSize: 0x3C }
  - { offset: 0x1E0CF, size: 0x8, addend: 0x0, symName: __ZNKSt3__112basic_stringIcNS_11char_traitsIcEENS_9allocatorIcEEE14__annotate_newB8ne180100Em, symObjAddr: 0x7040, symBinAddr: 0x100008F00, symSize: 0x14 }
  - { offset: 0x1E104, size: 0x8, addend: 0x0, symName: __ZNSt3__117__compressed_pairINS_12basic_stringIcNS_11char_traitsIcEENS_9allocatorIcEEE5__repES5_EC2B8ne180100INS_16__value_init_tagENS_18__default_init_tagEEEOT_OT0_, symObjAddr: 0x7054, symBinAddr: 0x100008F14, symSize: 0x3C }
  - { offset: 0x1E15C, size: 0x8, addend: 0x0, symName: __ZNSt3__122__compressed_pair_elemINS_12basic_stringIcNS_11char_traitsIcEENS_9allocatorIcEEE5__repELi0ELb0EEC2B8ne180100ENS_16__value_init_tagE, symObjAddr: 0x7090, symBinAddr: 0x100008F50, symSize: 0x20 }
  - { offset: 0x1E1B4, size: 0x8, addend: 0x0, symName: __ZNKSt3__113basic_istreamIcNS_11char_traitsIcEEE6sentrycvbB8ne180100Ev, symObjAddr: 0x70B0, symBinAddr: 0x100008F70, symSize: 0x1C }
  - { offset: 0x1E1DA, size: 0x8, addend: 0x0, symName: __ZNSt3__112basic_stringIcNS_11char_traitsIcEENS_9allocatorIcEEE5clearB8ne180100Ev, symObjAddr: 0x70CC, symBinAddr: 0x100008F8C, symSize: 0x94 }
  - { offset: 0x1E211, size: 0x8, addend: 0x0, symName: __ZNKSt3__19basic_iosIcNS_11char_traitsIcEEE5rdbufB8ne180100Ev, symObjAddr: 0x7160, symBinAddr: 0x100009020, symSize: 0x24 }
  - { offset: 0x1E239, size: 0x8, addend: 0x0, symName: __ZNSt3__115basic_streambufIcNS_11char_traitsIcEEE6sbumpcB8ne180100Ev, symObjAddr: 0x7184, symBinAddr: 0x100009044, symSize: 0x78 }
  - { offset: 0x1E25F, size: 0x8, addend: 0x0, symName: __ZNSt3__111char_traitsIcE11eq_int_typeB8ne180100Eii, symObjAddr: 0x71FC, symBinAddr: 0x1000090BC, symSize: 0x28 }
  - { offset: 0x1E292, size: 0x8, addend: 0x0, symName: __ZNSt3__111char_traitsIcE12to_char_typeB8ne180100Ei, symObjAddr: 0x7224, symBinAddr: 0x1000090E4, symSize: 0x18 }
  - { offset: 0x1E2B6, size: 0x8, addend: 0x0, symName: __ZNSt3__111char_traitsIcE2eqEcc, symObjAddr: 0x723C, symBinAddr: 0x1000090FC, symSize: 0x28 }
  - { offset: 0x1E2E7, size: 0x8, addend: 0x0, symName: __ZNKSt3__112basic_stringIcNS_11char_traitsIcEENS_9allocatorIcEEE4sizeB8ne180100Ev, symObjAddr: 0x7264, symBinAddr: 0x100009124, symSize: 0x54 }
  - { offset: 0x1E30D, size: 0x8, addend: 0x0, symName: __ZNKSt3__112basic_stringIcNS_11char_traitsIcEENS_9allocatorIcEEE8max_sizeB8ne180100Ev, symObjAddr: 0x72B8, symBinAddr: 0x100009178, symSize: 0xAC }
  - { offset: 0x1E360, size: 0x8, addend: 0x0, symName: __ZNSt3__18ios_base18__setstate_nothrowB8ne180100Ej, symObjAddr: 0x7364, symBinAddr: 0x100009224, symSize: 0x64 }
  - { offset: 0x1E395, size: 0x8, addend: 0x0, symName: __ZNKSt3__19basic_iosIcNS_11char_traitsIcEEE10exceptionsB8ne180100Ev, symObjAddr: 0x73C8, symBinAddr: 0x100009288, symSize: 0x24 }
  - { offset: 0x1E3BB, size: 0x8, addend: 0x0, symName: __ZNSt3__19basic_iosIcNS_11char_traitsIcEEE8setstateB8ne180100Ej, symObjAddr: 0x73EC, symBinAddr: 0x1000092AC, symSize: 0x2C }
  - { offset: 0x1E3F0, size: 0x8, addend: 0x0, symName: __ZNKSt3__112basic_stringIcNS_11char_traitsIcEENS_9allocatorIcEEE9__is_longB8ne180100Ev, symObjAddr: 0x7418, symBinAddr: 0x1000092D8, symSize: 0x38 }
  - { offset: 0x1E416, size: 0x8, addend: 0x0, symName: __ZNSt3__111char_traitsIcE6assignB8ne180100ERcRKc, symObjAddr: 0x7450, symBinAddr: 0x100009310, symSize: 0x24 }
  - { offset: 0x1E447, size: 0x8, addend: 0x0, symName: __ZNSt3__112basic_stringIcNS_11char_traitsIcEENS_9allocatorIcEEE18__get_long_pointerB8ne180100Ev, symObjAddr: 0x7474, symBinAddr: 0x100009334, symSize: 0x28 }
  - { offset: 0x1E46D, size: 0x8, addend: 0x0, symName: __ZNSt3__112basic_stringIcNS_11char_traitsIcEENS_9allocatorIcEEE15__set_long_sizeB8ne180100Em, symObjAddr: 0x749C, symBinAddr: 0x10000935C, symSize: 0x38 }
  - { offset: 0x1E4A2, size: 0x8, addend: 0x0, symName: __ZNSt3__112basic_stringIcNS_11char_traitsIcEENS_9allocatorIcEEE19__get_short_pointerB8ne180100Ev, symObjAddr: 0x74D4, symBinAddr: 0x100009394, symSize: 0x28 }
  - { offset: 0x1E4C8, size: 0x8, addend: 0x0, symName: __ZNSt3__112basic_stringIcNS_11char_traitsIcEENS_9allocatorIcEEE16__set_short_sizeB8ne180100Em, symObjAddr: 0x74FC, symBinAddr: 0x1000093BC, symSize: 0x78 }
  - { offset: 0x1E4FD, size: 0x8, addend: 0x0, symName: __ZNKSt3__112basic_stringIcNS_11char_traitsIcEENS_9allocatorIcEEE17__annotate_shrinkB8ne180100Em, symObjAddr: 0x7574, symBinAddr: 0x100009434, symSize: 0x14 }
  - { offset: 0x1E532, size: 0x8, addend: 0x0, symName: __ZNKSt3__117__compressed_pairINS_12basic_stringIcNS_11char_traitsIcEENS_9allocatorIcEEE5__repES5_E5firstB8ne180100Ev, symObjAddr: 0x7588, symBinAddr: 0x100009448, symSize: 0x24 }
  - { offset: 0x1E558, size: 0x8, addend: 0x0, symName: __ZNKSt3__122__compressed_pair_elemINS_12basic_stringIcNS_11char_traitsIcEENS_9allocatorIcEEE5__repELi0ELb0EE5__getB8ne180100Ev, symObjAddr: 0x75AC, symBinAddr: 0x10000946C, symSize: 0x14 }
  - { offset: 0x1E57E, size: 0x8, addend: 0x0, symName: __ZNSt3__117__compressed_pairINS_12basic_stringIcNS_11char_traitsIcEENS_9allocatorIcEEE5__repES5_E5firstB8ne180100Ev, symObjAddr: 0x75C0, symBinAddr: 0x100009480, symSize: 0x24 }
  - { offset: 0x1E5A4, size: 0x8, addend: 0x0, symName: __ZNSt3__122__compressed_pair_elemINS_12basic_stringIcNS_11char_traitsIcEENS_9allocatorIcEEE5__repELi0ELb0EE5__getB8ne180100Ev, symObjAddr: 0x75E4, symBinAddr: 0x1000094A4, symSize: 0x14 }
  - { offset: 0x1E5CA, size: 0x8, addend: 0x0, symName: __ZNSt3__114pointer_traitsIPcE10pointer_toB8ne180100ERc, symObjAddr: 0x75F8, symBinAddr: 0x1000094B8, symSize: 0x14 }
  - { offset: 0x1E5ED, size: 0x8, addend: 0x0, symName: __ZNKSt3__18ios_base5rdbufB8ne180100Ev, symObjAddr: 0x760C, symBinAddr: 0x1000094CC, symSize: 0x18 }
  - { offset: 0x1E613, size: 0x8, addend: 0x0, symName: __ZNSt3__111char_traitsIcE11to_int_typeB8ne180100Ec, symObjAddr: 0x7624, symBinAddr: 0x1000094E4, symSize: 0x14 }
  - { offset: 0x1E637, size: 0x8, addend: 0x0, symName: __ZNKSt3__112basic_stringIcNS_11char_traitsIcEENS_9allocatorIcEEE15__get_long_sizeB8ne180100Ev, symObjAddr: 0x7638, symBinAddr: 0x1000094F8, symSize: 0x28 }
  - { offset: 0x1E65D, size: 0x8, addend: 0x0, symName: __ZNKSt3__112basic_stringIcNS_11char_traitsIcEENS_9allocatorIcEEE16__get_short_sizeB8ne180100Ev, symObjAddr: 0x7660, symBinAddr: 0x100009520, symSize: 0x34 }
  - { offset: 0x1E68E, size: 0x8, addend: 0x0, symName: __ZNSt3__116allocator_traitsINS_9allocatorIcEEE8max_sizeB8ne180100IS2_vEEmRKS2_, symObjAddr: 0x7694, symBinAddr: 0x100009554, symSize: 0x24 }
  - { offset: 0x1E6BC, size: 0x8, addend: 0x0, symName: __ZNKSt3__112basic_stringIcNS_11char_traitsIcEENS_9allocatorIcEEE7__allocB8ne180100Ev, symObjAddr: 0x76B8, symBinAddr: 0x100009578, symSize: 0x24 }
  - { offset: 0x1E6E2, size: 0x8, addend: 0x0, symName: __ZNSt3__114numeric_limitsImE3maxB8ne180100Ev, symObjAddr: 0x76DC, symBinAddr: 0x10000959C, symSize: 0x14 }
  - { offset: 0x1E6F6, size: 0x8, addend: 0x0, symName: __ZNKSt3__19allocatorIcE8max_sizeB8ne180100Ev, symObjAddr: 0x76F0, symBinAddr: 0x1000095B0, symSize: 0x14 }
  - { offset: 0x1E71C, size: 0x8, addend: 0x0, symName: __ZNKSt3__117__compressed_pairINS_12basic_stringIcNS_11char_traitsIcEENS_9allocatorIcEEE5__repES5_E6secondB8ne180100Ev, symObjAddr: 0x7704, symBinAddr: 0x1000095C4, symSize: 0x24 }
  - { offset: 0x1E742, size: 0x8, addend: 0x0, symName: __ZNKSt3__122__compressed_pair_elemINS_9allocatorIcEELi1ELb1EE5__getB8ne180100Ev, symObjAddr: 0x7728, symBinAddr: 0x1000095E8, symSize: 0x14 }
  - { offset: 0x1E768, size: 0x8, addend: 0x0, symName: __ZNSt3__123__libcpp_numeric_limitsImLb1EE3maxB8ne180100Ev, symObjAddr: 0x773C, symBinAddr: 0x1000095FC, symSize: 0x8 }
  - { offset: 0x1E77C, size: 0x8, addend: 0x0, symName: __ZNKSt3__18ios_base10exceptionsB8ne180100Ev, symObjAddr: 0x7744, symBinAddr: 0x100009604, symSize: 0x18 }
  - { offset: 0x1E7A4, size: 0x8, addend: 0x0, symName: __ZNSt3__18ios_base8setstateB8ne180100Ej, symObjAddr: 0x775C, symBinAddr: 0x10000961C, symSize: 0x34 }
  - { offset: 0x1E7E1, size: 0x8, addend: 0x0, symName: __ZNSt3__16vectorIZ4mainE4LinkNS_9allocatorIS1_EEE22__construct_one_at_endB8ne180100IJS1_EEEvDpOT_, symObjAddr: 0x7790, symBinAddr: 0x100009650, symSize: 0x90 }
  - { offset: 0x1E830, size: 0x8, addend: 0x0, symName: __ZNSt3__16vectorIZ4mainE4LinkNS_9allocatorIS1_EEE21__push_back_slow_pathIS1_EEPS1_OT_, symObjAddr: 0x7820, symBinAddr: 0x1000096E0, symSize: 0xE8 }
  - { offset: 0x1E8AA, size: 0x8, addend: 0x0, symName: __ZNSt3__16vectorIZ4mainE4LinkNS_9allocatorIS1_EEE21_ConstructTransactionC1B8ne180100ERS4_m, symObjAddr: 0x7908, symBinAddr: 0x1000097C8, symSize: 0x3C }
  - { offset: 0x1E8F2, size: 0x8, addend: 0x0, symName: __ZNSt3__116allocator_traitsINS_9allocatorIZ4mainE4LinkEEE9constructB8ne180100IS2_JS2_EvEEvRS3_PT_DpOT0_, symObjAddr: 0x7944, symBinAddr: 0x100009804, symSize: 0x34 }
  - { offset: 0x1E949, size: 0x8, addend: 0x0, symName: __ZNSt3__16vectorIZ4mainE4LinkNS_9allocatorIS1_EEE21_ConstructTransactionD1B8ne180100Ev, symObjAddr: 0x7978, symBinAddr: 0x100009838, symSize: 0x2C }
  - { offset: 0x1E973, size: 0x8, addend: 0x0, symName: __ZNSt3__16vectorIZ4mainE4LinkNS_9allocatorIS1_EEE21_ConstructTransactionC2B8ne180100ERS4_m, symObjAddr: 0x79A4, symBinAddr: 0x100009864, symSize: 0x44 }
  - { offset: 0x1E9BB, size: 0x8, addend: 0x0, symName: __ZNSt3__19allocatorIZ4mainE4LinkE9constructB8ne180100IS1_JS1_EEEvPT_DpOT0_, symObjAddr: 0x79E8, symBinAddr: 0x1000098A8, symSize: 0x28 }
  - { offset: 0x1EA11, size: 0x8, addend: 0x0, symName: __ZNSt3__16vectorIZ4mainE4LinkNS_9allocatorIS1_EEE21_ConstructTransactionD2B8ne180100Ev, symObjAddr: 0x7A10, symBinAddr: 0x1000098D0, symSize: 0x20 }
  - { offset: 0x1EA3B, size: 0x8, addend: 0x0, symName: __ZNKSt3__16vectorIZ4mainE4LinkNS_9allocatorIS1_EEE11__recommendB8ne180100Em, symObjAddr: 0x7A30, symBinAddr: 0x1000098F0, symSize: 0xB4 }
  - { offset: 0x1EA90, size: 0x8, addend: 0x0, symName: __ZNSt3__16vectorIjNS_9allocatorIjEEEC2EmRKj, symObjAddr: 0x7B64, symBinAddr: 0x100009A24, symSize: 0xDC }
  - { offset: 0x1EAEF, size: 0x8, addend: 0x0, symName: __ZNSt3__117__compressed_pairIPjNS_9allocatorIjEEEC1B8ne180100IDnNS_18__default_init_tagEEEOT_OT0_, symObjAddr: 0x7C40, symBinAddr: 0x100009B00, symSize: 0x3C }
  - { offset: 0x1EB47, size: 0x8, addend: 0x0, symName: __ZNSt3__16vectorIjNS_9allocatorIjEEE18__construct_at_endEmRKj, symObjAddr: 0x7C7C, symBinAddr: 0x100009B3C, symSize: 0xD0 }
  - { offset: 0x1EBC9, size: 0x8, addend: 0x0, symName: __ZNSt3__117__compressed_pairIPjNS_9allocatorIjEEEC2B8ne180100IDnNS_18__default_init_tagEEEOT_OT0_, symObjAddr: 0x7D4C, symBinAddr: 0x100009C0C, symSize: 0x40 }
  - { offset: 0x1EC21, size: 0x8, addend: 0x0, symName: __ZNSt3__122__compressed_pair_elemINS_9allocatorIjEELi1ELb1EEC2B8ne180100ENS_18__default_init_tagE, symObjAddr: 0x7D8C, symBinAddr: 0x100009C4C, symSize: 0x2C }
  - { offset: 0x1EC56, size: 0x8, addend: 0x0, symName: __ZNSt3__19allocatorIjEC2B8ne180100Ev, symObjAddr: 0x7DB8, symBinAddr: 0x100009C78, symSize: 0x2C }
  - { offset: 0x1EC80, size: 0x8, addend: 0x0, symName: __ZNSt3__116__non_trivial_ifILb1ENS_9allocatorIjEEEC2B8ne180100Ev, symObjAddr: 0x7DE4, symBinAddr: 0x100009CA4, symSize: 0x14 }
  - { offset: 0x1ECAA, size: 0x8, addend: 0x0, symName: __ZNSt3__116allocator_traitsINS_9allocatorIjEEE9constructB8ne180100IjJRKjEvEEvRS2_PT_DpOT0_, symObjAddr: 0x7DF8, symBinAddr: 0x100009CB8, symSize: 0x34 }
  - { offset: 0x1ED01, size: 0x8, addend: 0x0, symName: __ZNSt3__19allocatorIjE9constructB8ne180100IjJRKjEEEvPT_DpOT0_, symObjAddr: 0x7E2C, symBinAddr: 0x100009CEC, symSize: 0x28 }
  - { offset: 0x1ED7A, size: 0x8, addend: 0x0, symName: __ZNKSt3__113basic_ostreamIcNS_11char_traitsIcEEE6sentrycvbB8ne180100Ev, symObjAddr: 0x8040, symBinAddr: 0x100009F00, symSize: 0x1C }
  - { offset: 0x1EDA0, size: 0x8, addend: 0x0, symName: __ZNSt3__119ostreambuf_iteratorIcNS_11char_traitsIcEEEC1B8ne180100ERNS_13basic_ostreamIcS2_EE, symObjAddr: 0x829C, symBinAddr: 0x10000A15C, symSize: 0x34 }
  - { offset: 0x1EDD8, size: 0x8, addend: 0x0, symName: __ZNKSt3__18ios_base5flagsB8ne180100Ev, symObjAddr: 0x82D0, symBinAddr: 0x10000A190, symSize: 0x18 }
  - { offset: 0x1EE00, size: 0x8, addend: 0x0, symName: __ZNKSt3__19basic_iosIcNS_11char_traitsIcEEE4fillB8ne180100Ev, symObjAddr: 0x82E8, symBinAddr: 0x10000A1A8, symSize: 0x64 }
  - { offset: 0x1EE28, size: 0x8, addend: 0x0, symName: __ZNKSt3__119ostreambuf_iteratorIcNS_11char_traitsIcEEE6failedB8ne180100Ev, symObjAddr: 0x834C, symBinAddr: 0x10000A20C, symSize: 0x24 }
  - { offset: 0x1EE4E, size: 0x8, addend: 0x0, symName: __ZNKSt3__18ios_base5widthB8ne180100Ev, symObjAddr: 0x8370, symBinAddr: 0x10000A230, symSize: 0x18 }
  - { offset: 0x1EE76, size: 0x8, addend: 0x0, symName: __ZNSt3__115basic_streambufIcNS_11char_traitsIcEEE5sputnB8ne180100EPKcl, symObjAddr: 0x8388, symBinAddr: 0x10000A248, symSize: 0x3C }
  - { offset: 0x1EEB8, size: 0x8, addend: 0x0, symName: __ZNSt3__112basic_stringIcNS_11char_traitsIcEENS_9allocatorIcEEEC1B8ne180100Emc, symObjAddr: 0x83C4, symBinAddr: 0x10000A284, symSize: 0x3C }
  - { offset: 0x1EF00, size: 0x8, addend: 0x0, symName: __ZNKSt3__112basic_stringIcNS_11char_traitsIcEENS_9allocatorIcEEE4dataB8ne180100Ev, symObjAddr: 0x8400, symBinAddr: 0x10000A2C0, symSize: 0x28 }
  - { offset: 0x1EF26, size: 0x8, addend: 0x0, symName: __ZNSt3__18ios_base5widthB8ne180100El, symObjAddr: 0x8428, symBinAddr: 0x10000A2E8, symSize: 0x2C }
  - { offset: 0x1EF6C, size: 0x8, addend: 0x0, symName: __ZNSt3__112basic_stringIcNS_11char_traitsIcEENS_9allocatorIcEEEC2B8ne180100Emc, symObjAddr: 0x8454, symBinAddr: 0x10000A314, symSize: 0x4C }
  - { offset: 0x1EFB4, size: 0x8, addend: 0x0, symName: __ZNKSt3__112basic_stringIcNS_11char_traitsIcEENS_9allocatorIcEEE13__get_pointerB8ne180100Ev, symObjAddr: 0x84B4, symBinAddr: 0x10000A374, symSize: 0x54 }
  - { offset: 0x1EFDA, size: 0x8, addend: 0x0, symName: __ZNKSt3__112basic_stringIcNS_11char_traitsIcEENS_9allocatorIcEEE18__get_long_pointerB8ne180100Ev, symObjAddr: 0x8508, symBinAddr: 0x10000A3C8, symSize: 0x28 }
  - { offset: 0x1F000, size: 0x8, addend: 0x0, symName: __ZNKSt3__112basic_stringIcNS_11char_traitsIcEENS_9allocatorIcEEE19__get_short_pointerB8ne180100Ev, symObjAddr: 0x8530, symBinAddr: 0x10000A3F0, symSize: 0x28 }
  - { offset: 0x1F026, size: 0x8, addend: 0x0, symName: __ZNSt3__114pointer_traitsIPKcE10pointer_toB8ne180100ERS1_, symObjAddr: 0x8558, symBinAddr: 0x10000A418, symSize: 0x14 }
  - { offset: 0x1F049, size: 0x8, addend: 0x0, symName: __ZNSt3__119ostreambuf_iteratorIcNS_11char_traitsIcEEEC2B8ne180100ERNS_13basic_ostreamIcS2_EE, symObjAddr: 0x856C, symBinAddr: 0x10000A42C, symSize: 0x54 }
  - { offset: 0x1F081, size: 0x8, addend: 0x0, symName: __ZNKSt3__19basic_iosIcNS_11char_traitsIcEEE5widenB8ne180100Ec, symObjAddr: 0x85C0, symBinAddr: 0x10000A480, symSize: 0x84 }
  - { offset: 0x1F0FC, size: 0x8, addend: 0x0, symName: __ZNKSt3__15ctypeIcE5widenB8ne180100Ec, symObjAddr: 0x8670, symBinAddr: 0x10000A530, symSize: 0x38 }
  - { offset: 0x1F131, size: 0x8, addend: 0x0, symName: __ZNKSt3__16vectorI9site_typeNS_9allocatorIS1_EEE8max_sizeEv, symObjAddr: 0x86A8, symBinAddr: 0x10000A568, symSize: 0x60 }
  - { offset: 0x1F159, size: 0x8, addend: 0x0, symName: __ZNKSt3__16vectorI9site_typeNS_9allocatorIS1_EEE20__throw_length_errorB8ne180100Ev, symObjAddr: 0x8708, symBinAddr: 0x10000A5C8, symSize: 0x1C }
  - { offset: 0x1F17F, size: 0x8, addend: 0x0, symName: __ZNSt3__114__split_bufferI9site_typeRNS_9allocatorIS1_EEEC1EmmS4_, symObjAddr: 0x8724, symBinAddr: 0x10000A5E4, symSize: 0x44 }
  - { offset: 0x1F1D5, size: 0x8, addend: 0x0, symName: __ZNSt3__114__split_bufferI9site_typeRNS_9allocatorIS1_EEED1Ev, symObjAddr: 0x8878, symBinAddr: 0x10000A738, symSize: 0x2C }
  - { offset: 0x1F20C, size: 0x8, addend: 0x0, symName: __ZNSt3__116allocator_traitsINS_9allocatorI9site_typeEEE8max_sizeB8ne180100IS3_vEEmRKS3_, symObjAddr: 0x88A4, symBinAddr: 0x10000A764, symSize: 0x24 }
  - { offset: 0x1F23A, size: 0x8, addend: 0x0, symName: __ZNKSt3__16vectorI9site_typeNS_9allocatorIS1_EEE7__allocB8ne180100Ev, symObjAddr: 0x88C8, symBinAddr: 0x10000A788, symSize: 0x28 }
  - { offset: 0x1F260, size: 0x8, addend: 0x0, symName: __ZNKSt3__19allocatorI9site_typeE8max_sizeB8ne180100Ev, symObjAddr: 0x88F0, symBinAddr: 0x10000A7B0, symSize: 0x20 }
  - { offset: 0x1F286, size: 0x8, addend: 0x0, symName: __ZNKSt3__117__compressed_pairIP9site_typeNS_9allocatorIS1_EEE6secondB8ne180100Ev, symObjAddr: 0x8910, symBinAddr: 0x10000A7D0, symSize: 0x24 }
  - { offset: 0x1F2AC, size: 0x8, addend: 0x0, symName: __ZNKSt3__122__compressed_pair_elemINS_9allocatorI9site_typeEELi1ELb1EE5__getB8ne180100Ev, symObjAddr: 0x8934, symBinAddr: 0x10000A7F4, symSize: 0x14 }
  - { offset: 0x1F2D2, size: 0x8, addend: 0x0, symName: __ZNSt3__114__split_bufferI9site_typeRNS_9allocatorIS1_EEEC2EmmS4_, symObjAddr: 0x8948, symBinAddr: 0x10000A808, symSize: 0xE0 }
  - { offset: 0x1F346, size: 0x8, addend: 0x0, symName: __ZNSt3__117__compressed_pairIP9site_typeRNS_9allocatorIS1_EEEC1B8ne180100IDnS5_EEOT_OT0_, symObjAddr: 0x8A28, symBinAddr: 0x10000A8E8, symSize: 0x3C }
  - { offset: 0x1F39E, size: 0x8, addend: 0x0, symName: __ZNSt3__114__split_bufferI9site_typeRNS_9allocatorIS1_EEE7__allocB8ne180100Ev, symObjAddr: 0x8AA4, symBinAddr: 0x10000A964, symSize: 0x28 }
  - { offset: 0x1F3C4, size: 0x8, addend: 0x0, symName: __ZNSt3__114__split_bufferI9site_typeRNS_9allocatorIS1_EEE9__end_capB8ne180100Ev, symObjAddr: 0x8ACC, symBinAddr: 0x10000A98C, symSize: 0x28 }
  - { offset: 0x1F3EA, size: 0x8, addend: 0x0, symName: __ZNSt3__117__compressed_pairIP9site_typeRNS_9allocatorIS1_EEEC2B8ne180100IDnS5_EEOT_OT0_, symObjAddr: 0x8AF4, symBinAddr: 0x10000A9B4, symSize: 0x48 }
  - { offset: 0x1F442, size: 0x8, addend: 0x0, symName: __ZNSt3__122__compressed_pair_elemIRNS_9allocatorI9site_typeEELi1ELb0EEC2B8ne180100IS4_vEEOT_, symObjAddr: 0x8B3C, symBinAddr: 0x10000A9FC, symSize: 0x20 }
  - { offset: 0x1F484, size: 0x8, addend: 0x0, symName: __ZNSt3__19allocatorI9site_typeE8allocateB8ne180100Em, symObjAddr: 0x8B5C, symBinAddr: 0x10000AA1C, symSize: 0x5C }
  - { offset: 0x1F4B8, size: 0x8, addend: 0x0, symName: __ZNSt3__117__compressed_pairIP9site_typeRNS_9allocatorIS1_EEE6secondB8ne180100Ev, symObjAddr: 0x8BB8, symBinAddr: 0x10000AA78, symSize: 0x28 }
  - { offset: 0x1F4DE, size: 0x8, addend: 0x0, symName: __ZNSt3__122__compressed_pair_elemIRNS_9allocatorI9site_typeEELi1ELb0EE5__getB8ne180100Ev, symObjAddr: 0x8BE0, symBinAddr: 0x10000AAA0, symSize: 0x18 }
  - { offset: 0x1F504, size: 0x8, addend: 0x0, symName: __ZNSt3__117__compressed_pairIP9site_typeRNS_9allocatorIS1_EEE5firstB8ne180100Ev, symObjAddr: 0x8BF8, symBinAddr: 0x10000AAB8, symSize: 0x24 }
  - { offset: 0x1F52A, size: 0x8, addend: 0x0, symName: __ZNSt3__122__compressed_pair_elemIP9site_typeLi0ELb0EE5__getB8ne180100Ev, symObjAddr: 0x8C1C, symBinAddr: 0x10000AADC, symSize: 0x14 }
  - { offset: 0x1F550, size: 0x8, addend: 0x0, symName: __ZNSt3__116reverse_iteratorIP9site_typeEC1B8ne180100ES2_, symObjAddr: 0x8D5C, symBinAddr: 0x10000AC1C, symSize: 0x34 }
  - { offset: 0x1F588, size: 0x8, addend: 0x0, symName: __ZNKSt3__116reverse_iteratorIP9site_typeE4baseB8ne180100Ev, symObjAddr: 0x8D90, symBinAddr: 0x10000AC50, symSize: 0x18 }
  - { offset: 0x1F5AE, size: 0x8, addend: 0x0, symName: __ZNSt3__16vectorI9site_typeNS_9allocatorIS1_EEE9__end_capB8ne180100Ev, symObjAddr: 0x8DE4, symBinAddr: 0x10000ACA4, symSize: 0x28 }
  - { offset: 0x1F5D4, size: 0x8, addend: 0x0, symName: __ZNKSt3__16vectorI9site_typeNS_9allocatorIS1_EEE14__annotate_newB8ne180100Em, symObjAddr: 0x8E0C, symBinAddr: 0x10000ACCC, symSize: 0x14 }
  - { offset: 0x1F609, size: 0x8, addend: 0x0, symName: __ZNSt3__129_AllocatorDestroyRangeReverseINS_9allocatorI9site_typeEENS_16reverse_iteratorIPS2_EEEC1B8ne180100ERS3_RS6_S9_, symObjAddr: 0x8E6C, symBinAddr: 0x10000AD2C, symSize: 0x44 }
  - { offset: 0x1F666, size: 0x8, addend: 0x0, symName: __ZNSt3__116allocator_traitsINS_9allocatorI9site_typeEEE9constructB8ne180100IS2_JS2_EvEEvRS3_PT_DpOT0_, symObjAddr: 0x8EF8, symBinAddr: 0x10000ADB8, symSize: 0x34 }
  - { offset: 0x1F6BD, size: 0x8, addend: 0x0, symName: __ZNKSt3__116reverse_iteratorIP9site_typeEdeB8ne180100Ev, symObjAddr: 0x8F50, symBinAddr: 0x10000AE10, symSize: 0x28 }
  - { offset: 0x1F6F1, size: 0x8, addend: 0x0, symName: __ZNSt3__116reverse_iteratorIP9site_typeEppB8ne180100Ev, symObjAddr: 0x8F78, symBinAddr: 0x10000AE38, symSize: 0x20 }
  - { offset: 0x1F717, size: 0x8, addend: 0x0, symName: __ZNSt3__128__exception_guard_exceptionsINS_29_AllocatorDestroyRangeReverseINS_9allocatorI9site_typeEENS_16reverse_iteratorIPS3_EEEEE10__completeB8ne180100Ev, symObjAddr: 0x8F98, symBinAddr: 0x10000AE58, symSize: 0x1C }
  - { offset: 0x1F73D, size: 0x8, addend: 0x0, symName: __ZNSt3__128__exception_guard_exceptionsINS_29_AllocatorDestroyRangeReverseINS_9allocatorI9site_typeEENS_16reverse_iteratorIPS3_EEEEED1B8ne180100Ev, symObjAddr: 0x8FB4, symBinAddr: 0x10000AE74, symSize: 0x2C }
  - { offset: 0x1F767, size: 0x8, addend: 0x0, symName: __ZNSt3__128__exception_guard_exceptionsINS_29_AllocatorDestroyRangeReverseINS_9allocatorI9site_typeEENS_16reverse_iteratorIPS3_EEEEEC1B8ne180100ES8_, symObjAddr: 0x8FE0, symBinAddr: 0x10000AEA0, symSize: 0x34 }
  - { offset: 0x1F7A0, size: 0x8, addend: 0x0, symName: __ZNSt3__128__exception_guard_exceptionsINS_29_AllocatorDestroyRangeReverseINS_9allocatorI9site_typeEENS_16reverse_iteratorIPS3_EEEEEC2B8ne180100ES8_, symObjAddr: 0x9014, symBinAddr: 0x10000AED4, symSize: 0x30 }
  - { offset: 0x1F7D9, size: 0x8, addend: 0x0, symName: __ZNSt3__129_AllocatorDestroyRangeReverseINS_9allocatorI9site_typeEENS_16reverse_iteratorIPS2_EEEC2B8ne180100ERS3_RS6_S9_, symObjAddr: 0x9044, symBinAddr: 0x10000AF04, symSize: 0x38 }
  - { offset: 0x1F830, size: 0x8, addend: 0x0, symName: __ZNSt3__19allocatorI9site_typeE9constructB8ne180100IS1_JS1_EEEvPT_DpOT0_, symObjAddr: 0x907C, symBinAddr: 0x10000AF3C, symSize: 0x30 }
  - { offset: 0x1F886, size: 0x8, addend: 0x0, symName: __ZN9site_typeC1EOS_, symObjAddr: 0x90AC, symBinAddr: 0x10000AF6C, symSize: 0x34 }
  - { offset: 0x1F8BB, size: 0x8, addend: 0x0, symName: __ZN9site_typeC2EOS_, symObjAddr: 0x90E0, symBinAddr: 0x10000AFA0, symSize: 0x5C }
  - { offset: 0x1F8F0, size: 0x8, addend: 0x0, symName: __ZNSt3__16vectorIjNS_9allocatorIjEEEC1B8ne180100EOS3_, symObjAddr: 0x913C, symBinAddr: 0x10000AFFC, symSize: 0x34 }
  - { offset: 0x1F92B, size: 0x8, addend: 0x0, symName: __ZNSt3__16vectorIjNS_9allocatorIjEEEC2B8ne180100EOS3_, symObjAddr: 0x9170, symBinAddr: 0x10000B030, symSize: 0xC4 }
  - { offset: 0x1F96C, size: 0x8, addend: 0x0, symName: __ZNSt3__119__to_address_helperINS_16reverse_iteratorIP9site_typeEEvE6__callB8ne180100ERKS4_, symObjAddr: 0x9234, symBinAddr: 0x10000B0F4, symSize: 0x38 }
  - { offset: 0x1F98F, size: 0x8, addend: 0x0, symName: __ZNKSt3__116reverse_iteratorIP9site_typeEptB8ne180100Ev, symObjAddr: 0x926C, symBinAddr: 0x10000B12C, symSize: 0x24 }
  - { offset: 0x1F9B5, size: 0x8, addend: 0x0, symName: __ZNSt3__128__exception_guard_exceptionsINS_29_AllocatorDestroyRangeReverseINS_9allocatorI9site_typeEENS_16reverse_iteratorIPS3_EEEEED2B8ne180100Ev, symObjAddr: 0x9290, symBinAddr: 0x10000B150, symSize: 0x50 }
  - { offset: 0x1F9DF, size: 0x8, addend: 0x0, symName: __ZNKSt3__129_AllocatorDestroyRangeReverseINS_9allocatorI9site_typeEENS_16reverse_iteratorIPS2_EEEclB8ne180100Ev, symObjAddr: 0x92E0, symBinAddr: 0x10000B1A0, symSize: 0xB4 }
  - { offset: 0x1FA06, size: 0x8, addend: 0x0, symName: __ZNSt3__116reverse_iteratorINS0_IP9site_typeEEEC1B8ne180100ES3_, symObjAddr: 0x9404, symBinAddr: 0x10000B2C4, symSize: 0x3C }
  - { offset: 0x1FA3E, size: 0x8, addend: 0x0, symName: __ZNSt3__116reverse_iteratorINS0_IP9site_typeEEEppB8ne180100Ev, symObjAddr: 0x94C4, symBinAddr: 0x10000B384, symSize: 0x30 }
  - { offset: 0x1FA64, size: 0x8, addend: 0x0, symName: __ZNKSt3__116reverse_iteratorINS0_IP9site_typeEEE4baseB8ne180100Ev, symObjAddr: 0x94F4, symBinAddr: 0x10000B3B4, symSize: 0x24 }
  - { offset: 0x1FA90, size: 0x8, addend: 0x0, symName: __ZNSt3__119__to_address_helperINS_16reverse_iteratorINS1_IP9site_typeEEEEvE6__callB8ne180100ERKS5_, symObjAddr: 0x9518, symBinAddr: 0x10000B3D8, symSize: 0x38 }
  - { offset: 0x1FAB3, size: 0x8, addend: 0x0, symName: __ZNKSt3__116reverse_iteratorINS0_IP9site_typeEEEptB8ne180100Ev, symObjAddr: 0x9550, symBinAddr: 0x10000B410, symSize: 0x24 }
  - { offset: 0x1FAD9, size: 0x8, addend: 0x0, symName: __ZNKSt3__116reverse_iteratorINS0_IP9site_typeEEEdeB8ne180100Ev, symObjAddr: 0x9574, symBinAddr: 0x10000B434, symSize: 0x34 }
  - { offset: 0x1FB0D, size: 0x8, addend: 0x0, symName: __ZNSt3__116reverse_iteratorIP9site_typeEmmB8ne180100Ev, symObjAddr: 0x95A8, symBinAddr: 0x10000B468, symSize: 0x20 }
  - { offset: 0x1FB33, size: 0x8, addend: 0x0, symName: __ZNSt3__116reverse_iteratorINS0_IP9site_typeEEEC2B8ne180100ES3_, symObjAddr: 0x95C8, symBinAddr: 0x10000B488, symSize: 0x2C }
  - { offset: 0x1FB6B, size: 0x8, addend: 0x0, symName: __ZNSt3__116reverse_iteratorIP9site_typeEC2B8ne180100ES2_, symObjAddr: 0x95F4, symBinAddr: 0x10000B4B4, symSize: 0x28 }
  - { offset: 0x1FBA3, size: 0x8, addend: 0x0, symName: __ZNSt3__117__compressed_pairIP9site_typeNS_9allocatorIS1_EEE5firstB8ne180100Ev, symObjAddr: 0x961C, symBinAddr: 0x10000B4DC, symSize: 0x24 }
  - { offset: 0x1FBC9, size: 0x8, addend: 0x0, symName: __ZNSt3__114__split_bufferI9site_typeRNS_9allocatorIS1_EEED2Ev, symObjAddr: 0x9640, symBinAddr: 0x10000B500, symSize: 0x8C }
  - { offset: 0x1FBF5, size: 0x8, addend: 0x0, symName: __ZNSt3__114__split_bufferI9site_typeRNS_9allocatorIS1_EEE5clearB8ne180100Ev, symObjAddr: 0x96CC, symBinAddr: 0x10000B58C, symSize: 0x28 }
  - { offset: 0x1FC1B, size: 0x8, addend: 0x0, symName: __ZNKSt3__114__split_bufferI9site_typeRNS_9allocatorIS1_EEE8capacityB8ne180100Ev, symObjAddr: 0x96F4, symBinAddr: 0x10000B5B4, symSize: 0x40 }
  - { offset: 0x1FC41, size: 0x8, addend: 0x0, symName: __ZNSt3__114__split_bufferI9site_typeRNS_9allocatorIS1_EEE17__destruct_at_endB8ne180100EPS1_, symObjAddr: 0x9734, symBinAddr: 0x10000B5F4, symSize: 0x2C }
  - { offset: 0x1FC75, size: 0x8, addend: 0x0, symName: __ZNSt3__114__split_bufferI9site_typeRNS_9allocatorIS1_EEE17__destruct_at_endB8ne180100EPS1_NS_17integral_constantIbLb0EEE, symObjAddr: 0x9760, symBinAddr: 0x10000B620, symSize: 0x80 }
  - { offset: 0x1FCB6, size: 0x8, addend: 0x0, symName: __ZNKSt3__114__split_bufferI9site_typeRNS_9allocatorIS1_EEE9__end_capB8ne180100Ev, symObjAddr: 0x97E0, symBinAddr: 0x10000B6A0, symSize: 0x28 }
  - { offset: 0x1FCDC, size: 0x8, addend: 0x0, symName: __ZNKSt3__117__compressed_pairIP9site_typeRNS_9allocatorIS1_EEE5firstB8ne180100Ev, symObjAddr: 0x9808, symBinAddr: 0x10000B6C8, symSize: 0x24 }
  - { offset: 0x1FD02, size: 0x8, addend: 0x0, symName: __ZNSt3__16vectorI9site_typeNS_9allocatorIS1_EEE8__appendEm, symObjAddr: 0x982C, symBinAddr: 0x10000B6EC, symSize: 0x108 }
  - { offset: 0x1FD5D, size: 0x8, addend: 0x0, symName: __ZNSt3__16vectorI9site_typeNS_9allocatorIS1_EEE17__destruct_at_endB8ne180100EPS1_, symObjAddr: 0x9934, symBinAddr: 0x10000B7F4, symSize: 0x4C }
  - { offset: 0x1FDA1, size: 0x8, addend: 0x0, symName: __ZNSt3__16vectorI9site_typeNS_9allocatorIS1_EEE18__construct_at_endEm, symObjAddr: 0x9980, symBinAddr: 0x10000B840, symSize: 0xC8 }
  - { offset: 0x1FE14, size: 0x8, addend: 0x0, symName: __ZNKSt3__16vectorI9site_typeNS_9allocatorIS1_EEE11__recommendB8ne180100Em, symObjAddr: 0x9A48, symBinAddr: 0x10000B908, symSize: 0xB4 }
  - { offset: 0x1FE69, size: 0x8, addend: 0x0, symName: __ZNSt3__114__split_bufferI9site_typeRNS_9allocatorIS1_EEE18__construct_at_endEm, symObjAddr: 0x9AFC, symBinAddr: 0x10000B9BC, symSize: 0xB4 }
  - { offset: 0x1FEC8, size: 0x8, addend: 0x0, symName: __ZNSt3__16vectorI9site_typeNS_9allocatorIS1_EEE21_ConstructTransactionC1B8ne180100ERS4_m, symObjAddr: 0x9BB0, symBinAddr: 0x10000BA70, symSize: 0x3C }
  - { offset: 0x1FF10, size: 0x8, addend: 0x0, symName: __ZNSt3__116allocator_traitsINS_9allocatorI9site_typeEEE9constructB8ne180100IS2_JEvEEvRS3_PT_DpOT0_, symObjAddr: 0x9BEC, symBinAddr: 0x10000BAAC, symSize: 0x2C }
  - { offset: 0x1FF52, size: 0x8, addend: 0x0, symName: __ZNSt3__16vectorI9site_typeNS_9allocatorIS1_EEE21_ConstructTransactionD1B8ne180100Ev, symObjAddr: 0x9C18, symBinAddr: 0x10000BAD8, symSize: 0x2C }
  - { offset: 0x1FF7C, size: 0x8, addend: 0x0, symName: __ZNSt3__16vectorI9site_typeNS_9allocatorIS1_EEE21_ConstructTransactionC2B8ne180100ERS4_m, symObjAddr: 0x9C44, symBinAddr: 0x10000BB04, symSize: 0x4C }
  - { offset: 0x1FFC4, size: 0x8, addend: 0x0, symName: __ZNSt3__19allocatorI9site_typeE9constructB8ne180100IS1_JEEEvPT_DpOT0_, symObjAddr: 0x9C90, symBinAddr: 0x10000BB50, symSize: 0x3C }
  - { offset: 0x20006, size: 0x8, addend: 0x0, symName: __ZN9site_typeC1Ev, symObjAddr: 0x9CCC, symBinAddr: 0x10000BB8C, symSize: 0x2C }
  - { offset: 0x20032, size: 0x8, addend: 0x0, symName: __ZN9site_typeC2Ev, symObjAddr: 0x9CF8, symBinAddr: 0x10000BBB8, symSize: 0x3C }
  - { offset: 0x2005E, size: 0x8, addend: 0x0, symName: __ZNSt3__16vectorIjNS_9allocatorIjEEEC1B8ne180100Ev, symObjAddr: 0x9D34, symBinAddr: 0x10000BBF4, symSize: 0x2C }
  - { offset: 0x20088, size: 0x8, addend: 0x0, symName: __ZNSt3__16vectorIjNS_9allocatorIjEEEC2B8ne180100Ev, symObjAddr: 0x9D60, symBinAddr: 0x10000BC20, symSize: 0x4C }
  - { offset: 0x200B2, size: 0x8, addend: 0x0, symName: __ZNSt3__16vectorI9site_typeNS_9allocatorIS1_EEE21_ConstructTransactionD2B8ne180100Ev, symObjAddr: 0x9DAC, symBinAddr: 0x10000BC6C, symSize: 0x20 }
  - { offset: 0x200E8, size: 0x8, addend: 0x0, symName: __ZNSt3__114__split_bufferI9site_typeRNS_9allocatorIS1_EEE21_ConstructTransactionC1B8ne180100EPPS1_m, symObjAddr: 0x9DCC, symBinAddr: 0x10000BC8C, symSize: 0x3C }
  - { offset: 0x2012E, size: 0x8, addend: 0x0, symName: __ZNSt3__114__split_bufferI9site_typeRNS_9allocatorIS1_EEE21_ConstructTransactionD1B8ne180100Ev, symObjAddr: 0x9E08, symBinAddr: 0x10000BCC8, symSize: 0x2C }
  - { offset: 0x20158, size: 0x8, addend: 0x0, symName: __ZNSt3__114__split_bufferI9site_typeRNS_9allocatorIS1_EEE21_ConstructTransactionC2B8ne180100EPPS1_m, symObjAddr: 0x9E34, symBinAddr: 0x10000BCF4, symSize: 0x4C }
  - { offset: 0x2019E, size: 0x8, addend: 0x0, symName: __ZNSt3__114__split_bufferI9site_typeRNS_9allocatorIS1_EEE21_ConstructTransactionD2B8ne180100Ev, symObjAddr: 0x9E80, symBinAddr: 0x10000BD40, symSize: 0x20 }
  - { offset: 0x201C8, size: 0x8, addend: 0x0, symName: __ZNKSt3__16vectorI9site_typeNS_9allocatorIS1_EEE17__annotate_shrinkB8ne180100Em, symObjAddr: 0x9EA0, symBinAddr: 0x10000BD60, symSize: 0x14 }
  - { offset: 0x201FD, size: 0x8, addend: 0x0, symName: __ZNSt3__16vectorIjNS_9allocatorIjEEE22__construct_one_at_endB8ne180100IJRKjEEEvDpOT_, symObjAddr: 0x9EB4, symBinAddr: 0x10000BD74, symSize: 0x90 }
  - { offset: 0x2024C, size: 0x8, addend: 0x0, symName: __ZNSt3__16vectorIjNS_9allocatorIjEEE21__push_back_slow_pathIRKjEEPjOT_, symObjAddr: 0x9F44, symBinAddr: 0x10000BE04, symSize: 0xE8 }
  - { offset: 0x202AA, size: 0x8, addend: 0x0, symName: __ZNKSt3__16vectorIjNS_9allocatorIjEEE11__recommendB8ne180100Em, symObjAddr: 0xA02C, symBinAddr: 0x10000BEEC, symSize: 0xB4 }
  - { offset: 0x202FF, size: 0x8, addend: 0x0, symName: __ZNSt3__114__split_bufferIjRNS_9allocatorIjEEEC1EmmS3_, symObjAddr: 0xA0E0, symBinAddr: 0x10000BFA0, symSize: 0x44 }
  - { offset: 0x20355, size: 0x8, addend: 0x0, symName: __ZNSt3__114__split_bufferIjRNS_9allocatorIjEEED1Ev, symObjAddr: 0xA234, symBinAddr: 0x10000C0F4, symSize: 0x2C }
  - { offset: 0x20381, size: 0x8, addend: 0x0, symName: __ZNSt3__114__split_bufferIjRNS_9allocatorIjEEEC2EmmS3_, symObjAddr: 0xA260, symBinAddr: 0x10000C120, symSize: 0xD4 }
  - { offset: 0x203F5, size: 0x8, addend: 0x0, symName: __ZNSt3__117__compressed_pairIPjRNS_9allocatorIjEEEC1B8ne180100IDnS4_EEOT_OT0_, symObjAddr: 0xA334, symBinAddr: 0x10000C1F4, symSize: 0x3C }
  - { offset: 0x2044D, size: 0x8, addend: 0x0, symName: __ZNSt3__114__split_bufferIjRNS_9allocatorIjEEE7__allocB8ne180100Ev, symObjAddr: 0xA370, symBinAddr: 0x10000C230, symSize: 0x28 }
  - { offset: 0x20473, size: 0x8, addend: 0x0, symName: __ZNSt3__114__split_bufferIjRNS_9allocatorIjEEE9__end_capB8ne180100Ev, symObjAddr: 0xA398, symBinAddr: 0x10000C258, symSize: 0x28 }
  - { offset: 0x20499, size: 0x8, addend: 0x0, symName: __ZNSt3__117__compressed_pairIPjRNS_9allocatorIjEEEC2B8ne180100IDnS4_EEOT_OT0_, symObjAddr: 0xA3C0, symBinAddr: 0x10000C280, symSize: 0x48 }
  - { offset: 0x204F1, size: 0x8, addend: 0x0, symName: __ZNSt3__122__compressed_pair_elemIRNS_9allocatorIjEELi1ELb0EEC2B8ne180100IS3_vEEOT_, symObjAddr: 0xA408, symBinAddr: 0x10000C2C8, symSize: 0x20 }
  - { offset: 0x20533, size: 0x8, addend: 0x0, symName: __ZNSt3__117__compressed_pairIPjRNS_9allocatorIjEEE6secondB8ne180100Ev, symObjAddr: 0xA428, symBinAddr: 0x10000C2E8, symSize: 0x28 }
  - { offset: 0x20559, size: 0x8, addend: 0x0, symName: __ZNSt3__122__compressed_pair_elemIRNS_9allocatorIjEELi1ELb0EE5__getB8ne180100Ev, symObjAddr: 0xA450, symBinAddr: 0x10000C310, symSize: 0x18 }
  - { offset: 0x2057F, size: 0x8, addend: 0x0, symName: __ZNSt3__117__compressed_pairIPjRNS_9allocatorIjEEE5firstB8ne180100Ev, symObjAddr: 0xA468, symBinAddr: 0x10000C328, symSize: 0x24 }
  - { offset: 0x205A5, size: 0x8, addend: 0x0, symName: __ZNSt3__116reverse_iteratorIPjEC1B8ne180100ES1_, symObjAddr: 0xA504, symBinAddr: 0x10000C3C4, symSize: 0x34 }
  - { offset: 0x205DD, size: 0x8, addend: 0x0, symName: __ZNKSt3__116reverse_iteratorIPjE4baseB8ne180100Ev, symObjAddr: 0xA538, symBinAddr: 0x10000C3F8, symSize: 0x18 }
  - { offset: 0x20620, size: 0x8, addend: 0x0, symName: __ZNKSt3__111__move_loopINS_17_ClassicAlgPolicyEEclB8ne180100INS_16reverse_iteratorIPjEES6_S6_EENS_4pairIT_T1_EES8_T0_S9_, symObjAddr: 0xA87C, symBinAddr: 0x10000C73C, symSize: 0xA0 }
  - { offset: 0x20691, size: 0x8, addend: 0x0, symName: __ZNSt3__18_IterOpsINS_17_ClassicAlgPolicyEE11__iter_moveB8ne180100IRNS_16reverse_iteratorIPjEELi0EEEDTclsr3stdE4movedeclsr3stdE7declvalIRT_EEEEOS8_, symObjAddr: 0xAAB0, symBinAddr: 0x10000C970, symSize: 0x28 }
  - { offset: 0x206C3, size: 0x8, addend: 0x0, symName: __ZNKSt3__116reverse_iteratorIPjEdeB8ne180100Ev, symObjAddr: 0xAAD8, symBinAddr: 0x10000C998, symSize: 0x28 }
  - { offset: 0x206F7, size: 0x8, addend: 0x0, symName: __ZNSt3__116reverse_iteratorIPjEppB8ne180100Ev, symObjAddr: 0xAB00, symBinAddr: 0x10000C9C0, symSize: 0x20 }
  - { offset: 0x2071D, size: 0x8, addend: 0x0, symName: __ZNSt3__18_IterOpsINS_17_ClassicAlgPolicyEE25__validate_iter_referenceB8ne180100IRNS_16reverse_iteratorIPjEEEEvv, symObjAddr: 0xAB20, symBinAddr: 0x10000C9E0, symSize: 0x4 }
  - { offset: 0x2073B, size: 0x8, addend: 0x0, symName: __ZNSt3__118__unwrap_iter_implINS_16reverse_iteratorIPjEELb0EE8__unwrapB8ne180100ES3_, symObjAddr: 0xAB24, symBinAddr: 0x10000C9E4, symSize: 0x24 }
  - { offset: 0x20764, size: 0x8, addend: 0x0, symName: __ZNSt3__14pairINS_16reverse_iteratorIPjEES3_EC1B8ne180100IS3_S3_Li0EEEOT_OT0_, symObjAddr: 0xAB48, symBinAddr: 0x10000CA08, symSize: 0x3C }
  - { offset: 0x207C2, size: 0x8, addend: 0x0, symName: __ZNSt3__14pairINS_16reverse_iteratorIPjEES3_EC2B8ne180100IS3_S3_Li0EEEOT_OT0_, symObjAddr: 0xAB84, symBinAddr: 0x10000CA44, symSize: 0x34 }
  - { offset: 0x20820, size: 0x8, addend: 0x0, symName: __ZNSt3__118__unwrap_iter_implINS_16reverse_iteratorIPjEELb0EE8__rewrapB8ne180100ES3_S3_, symObjAddr: 0xABB8, symBinAddr: 0x10000CA78, symSize: 0x2C }
  - { offset: 0x2084E, size: 0x8, addend: 0x0, symName: __ZNSt3__116reverse_iteratorIPjEC2B8ne180100ES1_, symObjAddr: 0xABE4, symBinAddr: 0x10000CAA4, symSize: 0x28 }
  - { offset: 0x20886, size: 0x8, addend: 0x0, symName: __ZNSt3__114__split_bufferIjRNS_9allocatorIjEEED2Ev, symObjAddr: 0xAC0C, symBinAddr: 0x10000CACC, symSize: 0x8C }
  - { offset: 0x208B2, size: 0x8, addend: 0x0, symName: __ZNSt3__114__split_bufferIjRNS_9allocatorIjEEE5clearB8ne180100Ev, symObjAddr: 0xAC98, symBinAddr: 0x10000CB58, symSize: 0x28 }
  - { offset: 0x208D8, size: 0x8, addend: 0x0, symName: __ZNKSt3__114__split_bufferIjRNS_9allocatorIjEEE8capacityB8ne180100Ev, symObjAddr: 0xACC0, symBinAddr: 0x10000CB80, symSize: 0x40 }
  - { offset: 0x208FE, size: 0x8, addend: 0x0, symName: __ZNSt3__114__split_bufferIjRNS_9allocatorIjEEE17__destruct_at_endB8ne180100EPj, symObjAddr: 0xAD00, symBinAddr: 0x10000CBC0, symSize: 0x2C }
  - { offset: 0x20932, size: 0x8, addend: 0x0, symName: __ZNSt3__114__split_bufferIjRNS_9allocatorIjEEE17__destruct_at_endB8ne180100EPjNS_17integral_constantIbLb0EEE, symObjAddr: 0xAD2C, symBinAddr: 0x10000CBEC, symSize: 0x80 }
  - { offset: 0x20973, size: 0x8, addend: 0x0, symName: __ZNKSt3__114__split_bufferIjRNS_9allocatorIjEEE9__end_capB8ne180100Ev, symObjAddr: 0xADAC, symBinAddr: 0x10000CC6C, symSize: 0x28 }
  - { offset: 0x20999, size: 0x8, addend: 0x0, symName: __ZNKSt3__117__compressed_pairIPjRNS_9allocatorIjEEE5firstB8ne180100Ev, symObjAddr: 0xADD4, symBinAddr: 0x10000CC94, symSize: 0x24 }
  - { offset: 0x209C5, size: 0x8, addend: 0x0, symName: __ZNSt3__16vectorIjNS_9allocatorIjEEE22__construct_one_at_endB8ne180100IJjEEEvDpOT_, symObjAddr: 0xADF8, symBinAddr: 0x10000CCB8, symSize: 0x90 }
  - { offset: 0x20A14, size: 0x8, addend: 0x0, symName: __ZNSt3__16vectorIjNS_9allocatorIjEEE21__push_back_slow_pathIjEEPjOT_, symObjAddr: 0xAE88, symBinAddr: 0x10000CD48, symSize: 0xE8 }
  - { offset: 0x20A72, size: 0x8, addend: 0x0, symName: __ZNSt3__116allocator_traitsINS_9allocatorIjEEE9constructB8ne180100IjJjEvEEvRS2_PT_DpOT0_, symObjAddr: 0xAF70, symBinAddr: 0x10000CE30, symSize: 0x34 }
  - { offset: 0x20AC9, size: 0x8, addend: 0x0, symName: __ZNSt3__19allocatorIjE9constructB8ne180100IjJjEEEvPT_DpOT0_, symObjAddr: 0xAFA4, symBinAddr: 0x10000CE64, symSize: 0x28 }
  - { offset: 0x20B1F, size: 0x8, addend: 0x0, symName: __ZNSt3__16vectorI9site_typeNS_9allocatorIS1_EEEC2ERKS4_, symObjAddr: 0xAFCC, symBinAddr: 0x10000CE8C, symSize: 0x94 }
  - { offset: 0x20B5A, size: 0x8, addend: 0x0, symName: __ZNSt3__116allocator_traitsINS_9allocatorI9site_typeEEE37select_on_container_copy_constructionB8ne180100IS3_vvEES3_RKS3_, symObjAddr: 0xB060, symBinAddr: 0x10000CF20, symSize: 0x10 }
  - { offset: 0x20B8F, size: 0x8, addend: 0x0, symName: __ZNSt3__117__compressed_pairIP9site_typeNS_9allocatorIS1_EEEC1B8ne180100IDnS4_EEOT_OT0_, symObjAddr: 0xB070, symBinAddr: 0x10000CF30, symSize: 0x3C }
  - { offset: 0x20BE7, size: 0x8, addend: 0x0, symName: __ZNSt3__16vectorI9site_typeNS_9allocatorIS1_EEE16__init_with_sizeB8ne180100IPS1_S6_EEvT_T0_m, symObjAddr: 0xB0AC, symBinAddr: 0x10000CF6C, symSize: 0xB8 }
  - { offset: 0x20C5B, size: 0x8, addend: 0x0, symName: __ZNSt3__117__compressed_pairIP9site_typeNS_9allocatorIS1_EEEC2B8ne180100IDnS4_EEOT_OT0_, symObjAddr: 0xB164, symBinAddr: 0x10000D024, symSize: 0x44 }
  - { offset: 0x20CB3, size: 0x8, addend: 0x0, symName: __ZNSt3__122__compressed_pair_elemINS_9allocatorI9site_typeEELi1ELb1EEC2B8ne180100IS3_vEEOT_, symObjAddr: 0xB1A8, symBinAddr: 0x10000D068, symSize: 0x18 }
  - { offset: 0x20CF5, size: 0x8, addend: 0x0, symName: __ZNSt3__16vectorI9site_typeNS_9allocatorIS1_EEE11__vallocateB8ne180100Em, symObjAddr: 0xB200, symBinAddr: 0x10000D0C0, symSize: 0xB4 }
  - { offset: 0x20D39, size: 0x8, addend: 0x0, symName: __ZNSt3__16vectorI9site_typeNS_9allocatorIS1_EEE18__construct_at_endIPS1_S6_EEvT_T0_m, symObjAddr: 0xB2B4, symBinAddr: 0x10000D174, symSize: 0x8C }
  - { offset: 0x20DAF, size: 0x8, addend: 0x0, symName: __ZNSt3__128__exception_guard_exceptionsINS_6vectorI9site_typeNS_9allocatorIS2_EEE16__destroy_vectorEE10__completeB8ne180100Ev, symObjAddr: 0xB340, symBinAddr: 0x10000D200, symSize: 0x1C }
  - { offset: 0x20DD5, size: 0x8, addend: 0x0, symName: __ZNSt3__128__exception_guard_exceptionsINS_6vectorI9site_typeNS_9allocatorIS2_EEE16__destroy_vectorEED1B8ne180100Ev, symObjAddr: 0xB35C, symBinAddr: 0x10000D21C, symSize: 0x2C }
  - { offset: 0x20DFF, size: 0x8, addend: 0x0, symName: __ZNSt3__128__exception_guard_exceptionsINS_6vectorI9site_typeNS_9allocatorIS2_EEE16__destroy_vectorEEC1B8ne180100ES6_, symObjAddr: 0xB388, symBinAddr: 0x10000D248, symSize: 0x34 }
  - { offset: 0x20E37, size: 0x8, addend: 0x0, symName: __ZNSt3__128__exception_guard_exceptionsINS_6vectorI9site_typeNS_9allocatorIS2_EEE16__destroy_vectorEEC2B8ne180100ES6_, symObjAddr: 0xB3BC, symBinAddr: 0x10000D27C, symSize: 0x24 }
  - { offset: 0x20E92, size: 0x8, addend: 0x0, symName: __ZNSt3__14pairIP9site_typeS2_EC1B8ne180100IS2_S2_Li0EEEOT_OT0_, symObjAddr: 0xB64C, symBinAddr: 0x10000D50C, symSize: 0x3C }
  - { offset: 0x20EF0, size: 0x8, addend: 0x0, symName: __ZNSt3__14pairIP9site_typeS2_EC2B8ne180100IS2_S2_Li0EEEOT_OT0_, symObjAddr: 0xB688, symBinAddr: 0x10000D548, symSize: 0x34 }
  - { offset: 0x20F4E, size: 0x8, addend: 0x0, symName: __ZNSt3__129_AllocatorDestroyRangeReverseINS_9allocatorI9site_typeEEPS2_EC1B8ne180100ERS3_RS4_S7_, symObjAddr: 0xB708, symBinAddr: 0x10000D5C8, symSize: 0x44 }
  - { offset: 0x20FA5, size: 0x8, addend: 0x0, symName: __ZNSt3__116allocator_traitsINS_9allocatorI9site_typeEEE9constructB8ne180100IS2_JRS2_EvEEvRS3_PT_DpOT0_, symObjAddr: 0xB74C, symBinAddr: 0x10000D60C, symSize: 0x34 }
  - { offset: 0x20FFC, size: 0x8, addend: 0x0, symName: __ZNSt3__128__exception_guard_exceptionsINS_29_AllocatorDestroyRangeReverseINS_9allocatorI9site_typeEEPS3_EEE10__completeB8ne180100Ev, symObjAddr: 0xB780, symBinAddr: 0x10000D640, symSize: 0x1C }
  - { offset: 0x21022, size: 0x8, addend: 0x0, symName: __ZNSt3__128__exception_guard_exceptionsINS_29_AllocatorDestroyRangeReverseINS_9allocatorI9site_typeEEPS3_EEED1B8ne180100Ev, symObjAddr: 0xB79C, symBinAddr: 0x10000D65C, symSize: 0x2C }
  - { offset: 0x2104C, size: 0x8, addend: 0x0, symName: __ZNSt3__128__exception_guard_exceptionsINS_29_AllocatorDestroyRangeReverseINS_9allocatorI9site_typeEEPS3_EEEC1B8ne180100ES6_, symObjAddr: 0xB7C8, symBinAddr: 0x10000D688, symSize: 0x34 }
  - { offset: 0x21085, size: 0x8, addend: 0x0, symName: __ZNSt3__128__exception_guard_exceptionsINS_29_AllocatorDestroyRangeReverseINS_9allocatorI9site_typeEEPS3_EEEC2B8ne180100ES6_, symObjAddr: 0xB7FC, symBinAddr: 0x10000D6BC, symSize: 0x30 }
  - { offset: 0x210BE, size: 0x8, addend: 0x0, symName: __ZNSt3__129_AllocatorDestroyRangeReverseINS_9allocatorI9site_typeEEPS2_EC2B8ne180100ERS3_RS4_S7_, symObjAddr: 0xB82C, symBinAddr: 0x10000D6EC, symSize: 0x38 }
  - { offset: 0x21115, size: 0x8, addend: 0x0, symName: __ZNSt3__19allocatorI9site_typeE9constructB8ne180100IS1_JRS1_EEEvPT_DpOT0_, symObjAddr: 0xB864, symBinAddr: 0x10000D724, symSize: 0x30 }
  - { offset: 0x2116B, size: 0x8, addend: 0x0, symName: __ZNSt3__128__exception_guard_exceptionsINS_29_AllocatorDestroyRangeReverseINS_9allocatorI9site_typeEEPS3_EEED2B8ne180100Ev, symObjAddr: 0xB894, symBinAddr: 0x10000D754, symSize: 0x50 }
  - { offset: 0x21195, size: 0x8, addend: 0x0, symName: __ZNKSt3__129_AllocatorDestroyRangeReverseINS_9allocatorI9site_typeEEPS2_EclB8ne180100Ev, symObjAddr: 0xB8E4, symBinAddr: 0x10000D7A4, symSize: 0x68 }
  - { offset: 0x211BB, size: 0x8, addend: 0x0, symName: __ZNSt3__118__unwrap_iter_implIP9site_typeLb1EE8__unwrapB8ne180100ES2_, symObjAddr: 0xB9BC, symBinAddr: 0x10000D87C, symSize: 0x24 }
  - { offset: 0x211DE, size: 0x8, addend: 0x0, symName: __ZNSt3__118__unwrap_iter_implIP9site_typeLb1EE8__rewrapB8ne180100ES2_S2_, symObjAddr: 0xB9E0, symBinAddr: 0x10000D8A0, symSize: 0x58 }
  - { offset: 0x2120F, size: 0x8, addend: 0x0, symName: __ZNSt3__128__exception_guard_exceptionsINS_6vectorI9site_typeNS_9allocatorIS2_EEE16__destroy_vectorEED2B8ne180100Ev, symObjAddr: 0xBA38, symBinAddr: 0x10000D8F8, symSize: 0x48 }
  - { offset: 0x21239, size: 0x8, addend: 0x0, symName: __ZNSt3__16vectorIiNS_9allocatorIiEEEC2B8ne180100Ev, symObjAddr: 0xBA80, symBinAddr: 0x10000D940, symSize: 0x4C }
  - { offset: 0x21263, size: 0x8, addend: 0x0, symName: __ZNSt3__117__compressed_pairIPiNS_9allocatorIiEEEC1B8ne180100IDnNS_18__default_init_tagEEEOT_OT0_, symObjAddr: 0xBACC, symBinAddr: 0x10000D98C, symSize: 0x3C }
  - { offset: 0x212BB, size: 0x8, addend: 0x0, symName: __ZNSt3__117__compressed_pairIPiNS_9allocatorIiEEEC2B8ne180100IDnNS_18__default_init_tagEEEOT_OT0_, symObjAddr: 0xBB08, symBinAddr: 0x10000D9C8, symSize: 0x40 }
  - { offset: 0x21313, size: 0x8, addend: 0x0, symName: __ZNSt3__122__compressed_pair_elemIPiLi0ELb0EEC2B8ne180100IDnvEEOT_, symObjAddr: 0xBB48, symBinAddr: 0x10000DA08, symSize: 0x1C }
  - { offset: 0x21355, size: 0x8, addend: 0x0, symName: __ZNSt3__122__compressed_pair_elemINS_9allocatorIiEELi1ELb1EEC2B8ne180100ENS_18__default_init_tagE, symObjAddr: 0xBB64, symBinAddr: 0x10000DA24, symSize: 0x2C }
  - { offset: 0x2138A, size: 0x8, addend: 0x0, symName: __ZNSt3__19allocatorIiEC2B8ne180100Ev, symObjAddr: 0xBB90, symBinAddr: 0x10000DA50, symSize: 0x2C }
  - { offset: 0x213B4, size: 0x8, addend: 0x0, symName: __ZNSt3__116__non_trivial_ifILb1ENS_9allocatorIiEEEC2B8ne180100Ev, symObjAddr: 0xBBBC, symBinAddr: 0x10000DA7C, symSize: 0x14 }
  - { offset: 0x213DE, size: 0x8, addend: 0x0, symName: __ZNSt3__16vectorIiNS_9allocatorIiEEED2B8ne180100Ev, symObjAddr: 0xBBD0, symBinAddr: 0x10000DA90, symSize: 0x44 }
  - { offset: 0x21408, size: 0x8, addend: 0x0, symName: __ZNSt3__16vectorIiNS_9allocatorIiEEE16__destroy_vectorC1B8ne180100ERS3_, symObjAddr: 0xBC14, symBinAddr: 0x10000DAD4, symSize: 0x34 }
  - { offset: 0x21441, size: 0x8, addend: 0x0, symName: __ZNSt3__16vectorIiNS_9allocatorIiEEE16__destroy_vectorclB8ne180100Ev, symObjAddr: 0xBC48, symBinAddr: 0x10000DB08, symSize: 0x90 }
  - { offset: 0x21467, size: 0x8, addend: 0x0, symName: __ZNSt3__16vectorIiNS_9allocatorIiEEE16__destroy_vectorC2B8ne180100ERS3_, symObjAddr: 0xBCD8, symBinAddr: 0x10000DB98, symSize: 0x20 }
  - { offset: 0x214A0, size: 0x8, addend: 0x0, symName: __ZNSt3__16vectorIiNS_9allocatorIiEEE7__clearB8ne180100Ev, symObjAddr: 0xBCF8, symBinAddr: 0x10000DBB8, symSize: 0x28 }
  - { offset: 0x214C6, size: 0x8, addend: 0x0, symName: __ZNKSt3__16vectorIiNS_9allocatorIiEEE17__annotate_deleteB8ne180100Ev, symObjAddr: 0xBD20, symBinAddr: 0x10000DBE0, symSize: 0x10 }
  - { offset: 0x214EC, size: 0x8, addend: 0x0, symName: __ZNSt3__116allocator_traitsINS_9allocatorIiEEE10deallocateB8ne180100ERS2_Pim, symObjAddr: 0xBD30, symBinAddr: 0x10000DBF0, symSize: 0x34 }
  - { offset: 0x2152E, size: 0x8, addend: 0x0, symName: __ZNSt3__16vectorIiNS_9allocatorIiEEE7__allocB8ne180100Ev, symObjAddr: 0xBD64, symBinAddr: 0x10000DC24, symSize: 0x28 }
  - { offset: 0x21554, size: 0x8, addend: 0x0, symName: __ZNKSt3__16vectorIiNS_9allocatorIiEEE8capacityB8ne180100Ev, symObjAddr: 0xBD8C, symBinAddr: 0x10000DC4C, symSize: 0x40 }
  - { offset: 0x2157A, size: 0x8, addend: 0x0, symName: __ZNSt3__16vectorIiNS_9allocatorIiEEE22__base_destruct_at_endB8ne180100EPi, symObjAddr: 0xBDCC, symBinAddr: 0x10000DC8C, symSize: 0x8C }
  - { offset: 0x215BE, size: 0x8, addend: 0x0, symName: __ZNSt3__116allocator_traitsINS_9allocatorIiEEE7destroyB8ne180100IivEEvRS2_PT_, symObjAddr: 0xBE58, symBinAddr: 0x10000DD18, symSize: 0x2C }
  - { offset: 0x215FB, size: 0x8, addend: 0x0, symName: __ZNSt3__19allocatorIiE7destroyB8ne180100EPi, symObjAddr: 0xBE98, symBinAddr: 0x10000DD58, symSize: 0x14 }
  - { offset: 0x2162F, size: 0x8, addend: 0x0, symName: __ZNSt3__19allocatorIiE10deallocateB8ne180100EPim, symObjAddr: 0xBEAC, symBinAddr: 0x10000DD6C, symSize: 0x40 }
  - { offset: 0x21671, size: 0x8, addend: 0x0, symName: __ZNSt3__117__compressed_pairIPiNS_9allocatorIiEEE6secondB8ne180100Ev, symObjAddr: 0xBEEC, symBinAddr: 0x10000DDAC, symSize: 0x24 }
  - { offset: 0x21697, size: 0x8, addend: 0x0, symName: __ZNSt3__122__compressed_pair_elemINS_9allocatorIiEELi1ELb1EE5__getB8ne180100Ev, symObjAddr: 0xBF10, symBinAddr: 0x10000DDD0, symSize: 0x14 }
  - { offset: 0x216BD, size: 0x8, addend: 0x0, symName: __ZNKSt3__16vectorIiNS_9allocatorIiEEE9__end_capB8ne180100Ev, symObjAddr: 0xBF24, symBinAddr: 0x10000DDE4, symSize: 0x28 }
  - { offset: 0x216E3, size: 0x8, addend: 0x0, symName: __ZNKSt3__117__compressed_pairIPiNS_9allocatorIiEEE5firstB8ne180100Ev, symObjAddr: 0xBF4C, symBinAddr: 0x10000DE0C, symSize: 0x24 }
  - { offset: 0x21709, size: 0x8, addend: 0x0, symName: __ZNKSt3__122__compressed_pair_elemIPiLi0ELb0EE5__getB8ne180100Ev, symObjAddr: 0xBF70, symBinAddr: 0x10000DE30, symSize: 0x14 }
  - { offset: 0x2172F, size: 0x8, addend: 0x0, symName: __ZNSt3__16vectorIdNS_9allocatorIdEEEC2B8ne180100Ev, symObjAddr: 0xBF84, symBinAddr: 0x10000DE44, symSize: 0x4C }
  - { offset: 0x21759, size: 0x8, addend: 0x0, symName: __ZNSt3__117__compressed_pairIPdNS_9allocatorIdEEEC1B8ne180100IDnNS_18__default_init_tagEEEOT_OT0_, symObjAddr: 0xBFD0, symBinAddr: 0x10000DE90, symSize: 0x3C }
  - { offset: 0x217B1, size: 0x8, addend: 0x0, symName: __ZNSt3__117__compressed_pairIPdNS_9allocatorIdEEEC2B8ne180100IDnNS_18__default_init_tagEEEOT_OT0_, symObjAddr: 0xC00C, symBinAddr: 0x10000DECC, symSize: 0x40 }
  - { offset: 0x21809, size: 0x8, addend: 0x0, symName: __ZNSt3__122__compressed_pair_elemIPdLi0ELb0EEC2B8ne180100IDnvEEOT_, symObjAddr: 0xC04C, symBinAddr: 0x10000DF0C, symSize: 0x1C }
  - { offset: 0x2184B, size: 0x8, addend: 0x0, symName: __ZNSt3__122__compressed_pair_elemINS_9allocatorIdEELi1ELb1EEC2B8ne180100ENS_18__default_init_tagE, symObjAddr: 0xC068, symBinAddr: 0x10000DF28, symSize: 0x2C }
  - { offset: 0x21880, size: 0x8, addend: 0x0, symName: __ZNSt3__19allocatorIdEC2B8ne180100Ev, symObjAddr: 0xC094, symBinAddr: 0x10000DF54, symSize: 0x2C }
  - { offset: 0x218AA, size: 0x8, addend: 0x0, symName: __ZNSt3__116__non_trivial_ifILb1ENS_9allocatorIdEEEC2B8ne180100Ev, symObjAddr: 0xC0C0, symBinAddr: 0x10000DF80, symSize: 0x14 }
  - { offset: 0x218D4, size: 0x8, addend: 0x0, symName: __ZNSt3__16vectorIdNS_9allocatorIdEEED2B8ne180100Ev, symObjAddr: 0xC0D4, symBinAddr: 0x10000DF94, symSize: 0x44 }
  - { offset: 0x218FE, size: 0x8, addend: 0x0, symName: __ZNSt3__16vectorIdNS_9allocatorIdEEE16__destroy_vectorC1B8ne180100ERS3_, symObjAddr: 0xC118, symBinAddr: 0x10000DFD8, symSize: 0x34 }
  - { offset: 0x21937, size: 0x8, addend: 0x0, symName: __ZNSt3__16vectorIdNS_9allocatorIdEEE16__destroy_vectorclB8ne180100Ev, symObjAddr: 0xC14C, symBinAddr: 0x10000E00C, symSize: 0x90 }
  - { offset: 0x2195D, size: 0x8, addend: 0x0, symName: __ZNSt3__16vectorIdNS_9allocatorIdEEE16__destroy_vectorC2B8ne180100ERS3_, symObjAddr: 0xC1DC, symBinAddr: 0x10000E09C, symSize: 0x20 }
  - { offset: 0x21996, size: 0x8, addend: 0x0, symName: __ZNSt3__16vectorIdNS_9allocatorIdEEE7__clearB8ne180100Ev, symObjAddr: 0xC1FC, symBinAddr: 0x10000E0BC, symSize: 0x28 }
  - { offset: 0x219BC, size: 0x8, addend: 0x0, symName: __ZNKSt3__16vectorIdNS_9allocatorIdEEE17__annotate_deleteB8ne180100Ev, symObjAddr: 0xC224, symBinAddr: 0x10000E0E4, symSize: 0x10 }
  - { offset: 0x219E2, size: 0x8, addend: 0x0, symName: __ZNSt3__116allocator_traitsINS_9allocatorIdEEE10deallocateB8ne180100ERS2_Pdm, symObjAddr: 0xC234, symBinAddr: 0x10000E0F4, symSize: 0x34 }
  - { offset: 0x21A24, size: 0x8, addend: 0x0, symName: __ZNSt3__16vectorIdNS_9allocatorIdEEE7__allocB8ne180100Ev, symObjAddr: 0xC268, symBinAddr: 0x10000E128, symSize: 0x28 }
  - { offset: 0x21A4A, size: 0x8, addend: 0x0, symName: __ZNKSt3__16vectorIdNS_9allocatorIdEEE8capacityB8ne180100Ev, symObjAddr: 0xC290, symBinAddr: 0x10000E150, symSize: 0x40 }
  - { offset: 0x21A70, size: 0x8, addend: 0x0, symName: __ZNSt3__16vectorIdNS_9allocatorIdEEE22__base_destruct_at_endB8ne180100EPd, symObjAddr: 0xC2D0, symBinAddr: 0x10000E190, symSize: 0x8C }
  - { offset: 0x21AB4, size: 0x8, addend: 0x0, symName: __ZNSt3__116allocator_traitsINS_9allocatorIdEEE7destroyB8ne180100IdvEEvRS2_PT_, symObjAddr: 0xC35C, symBinAddr: 0x10000E21C, symSize: 0x2C }
  - { offset: 0x21AF1, size: 0x8, addend: 0x0, symName: __ZNSt3__19allocatorIdE7destroyB8ne180100EPd, symObjAddr: 0xC39C, symBinAddr: 0x10000E25C, symSize: 0x14 }
  - { offset: 0x21B25, size: 0x8, addend: 0x0, symName: __ZNSt3__19allocatorIdE10deallocateB8ne180100EPdm, symObjAddr: 0xC3B0, symBinAddr: 0x10000E270, symSize: 0x40 }
  - { offset: 0x21B67, size: 0x8, addend: 0x0, symName: __ZNSt3__117__compressed_pairIPdNS_9allocatorIdEEE6secondB8ne180100Ev, symObjAddr: 0xC3F0, symBinAddr: 0x10000E2B0, symSize: 0x24 }
  - { offset: 0x21B8D, size: 0x8, addend: 0x0, symName: __ZNSt3__122__compressed_pair_elemINS_9allocatorIdEELi1ELb1EE5__getB8ne180100Ev, symObjAddr: 0xC414, symBinAddr: 0x10000E2D4, symSize: 0x14 }
  - { offset: 0x21BB3, size: 0x8, addend: 0x0, symName: __ZNKSt3__16vectorIdNS_9allocatorIdEEE9__end_capB8ne180100Ev, symObjAddr: 0xC428, symBinAddr: 0x10000E2E8, symSize: 0x28 }
  - { offset: 0x21BD9, size: 0x8, addend: 0x0, symName: __ZNKSt3__117__compressed_pairIPdNS_9allocatorIdEEE5firstB8ne180100Ev, symObjAddr: 0xC450, symBinAddr: 0x10000E310, symSize: 0x24 }
  - { offset: 0x21BFF, size: 0x8, addend: 0x0, symName: __ZNKSt3__122__compressed_pair_elemIPdLi0ELb0EE5__getB8ne180100Ev, symObjAddr: 0xC474, symBinAddr: 0x10000E334, symSize: 0x14 }
  - { offset: 0x21C25, size: 0x8, addend: 0x0, symName: __ZNSt3__13setIiNS_4lessIiEENS_9allocatorIiEEEC2B8ne180100Ev, symObjAddr: 0xC488, symBinAddr: 0x10000E348, symSize: 0x30 }
  - { offset: 0x21C4F, size: 0x8, addend: 0x0, symName: __ZNSt3__16__treeIiNS_4lessIiEENS_9allocatorIiEEEC1ERKS2_, symObjAddr: 0xC4B8, symBinAddr: 0x10000E378, symSize: 0x34 }
  - { offset: 0x21C8A, size: 0x8, addend: 0x0, symName: __ZNSt3__16__treeIiNS_4lessIiEENS_9allocatorIiEEEC2ERKS2_, symObjAddr: 0xC4EC, symBinAddr: 0x10000E3AC, symSize: 0x7C }
  - { offset: 0x21CC5, size: 0x8, addend: 0x0, symName: __ZNSt3__117__compressed_pairINS_15__tree_end_nodeIPNS_16__tree_node_baseIPvEEEENS_9allocatorINS_11__tree_nodeIiS3_EEEEEC1B8ne180100ILb1EvEEv, symObjAddr: 0xC568, symBinAddr: 0x10000E428, symSize: 0x2C }
  - { offset: 0x21D00, size: 0x8, addend: 0x0, symName: __ZNSt3__117__compressed_pairImNS_4lessIiEEEC1B8ne180100IiRKS2_EEOT_OT0_, symObjAddr: 0xC594, symBinAddr: 0x10000E454, symSize: 0x3C }
  - { offset: 0x21D58, size: 0x8, addend: 0x0, symName: __ZNSt3__16__treeIiNS_4lessIiEENS_9allocatorIiEEE10__end_nodeB8ne180100Ev, symObjAddr: 0xC5D0, symBinAddr: 0x10000E490, symSize: 0x2C }
  - { offset: 0x21D7E, size: 0x8, addend: 0x0, symName: __ZNSt3__16__treeIiNS_4lessIiEENS_9allocatorIiEEE12__begin_nodeB8ne180100Ev, symObjAddr: 0xC5FC, symBinAddr: 0x10000E4BC, symSize: 0x14 }
  - { offset: 0x21DA4, size: 0x8, addend: 0x0, symName: __ZNSt3__117__compressed_pairINS_15__tree_end_nodeIPNS_16__tree_node_baseIPvEEEENS_9allocatorINS_11__tree_nodeIiS3_EEEEEC2B8ne180100ILb1EvEEv, symObjAddr: 0xC610, symBinAddr: 0x10000E4D0, symSize: 0x34 }
  - { offset: 0x21DD9, size: 0x8, addend: 0x0, symName: __ZNSt3__122__compressed_pair_elemINS_15__tree_end_nodeIPNS_16__tree_node_baseIPvEEEELi0ELb0EEC2B8ne180100ENS_16__value_init_tagE, symObjAddr: 0xC644, symBinAddr: 0x10000E504, symSize: 0x2C }
  - { offset: 0x21E0E, size: 0x8, addend: 0x0, symName: __ZNSt3__122__compressed_pair_elemINS_9allocatorINS_11__tree_nodeIiPvEEEELi1ELb1EEC2B8ne180100ENS_16__value_init_tagE, symObjAddr: 0xC670, symBinAddr: 0x10000E530, symSize: 0x2C }
  - { offset: 0x21E43, size: 0x8, addend: 0x0, symName: __ZNSt3__115__tree_end_nodeIPNS_16__tree_node_baseIPvEEEC1B8ne180100Ev, symObjAddr: 0xC69C, symBinAddr: 0x10000E55C, symSize: 0x2C }
  - { offset: 0x21E6D, size: 0x8, addend: 0x0, symName: __ZNSt3__115__tree_end_nodeIPNS_16__tree_node_baseIPvEEEC2B8ne180100Ev, symObjAddr: 0xC6C8, symBinAddr: 0x10000E588, symSize: 0x18 }
  - { offset: 0x21E97, size: 0x8, addend: 0x0, symName: __ZNSt3__19allocatorINS_11__tree_nodeIiPvEEEC2B8ne180100Ev, symObjAddr: 0xC6E0, symBinAddr: 0x10000E5A0, symSize: 0x2C }
  - { offset: 0x21EC1, size: 0x8, addend: 0x0, symName: __ZNSt3__116__non_trivial_ifILb1ENS_9allocatorINS_11__tree_nodeIiPvEEEEEC2B8ne180100Ev, symObjAddr: 0xC70C, symBinAddr: 0x10000E5CC, symSize: 0x14 }
  - { offset: 0x21EEB, size: 0x8, addend: 0x0, symName: __ZNSt3__117__compressed_pairImNS_4lessIiEEEC2B8ne180100IiRKS2_EEOT_OT0_, symObjAddr: 0xC720, symBinAddr: 0x10000E5E0, symSize: 0x44 }
  - { offset: 0x21F43, size: 0x8, addend: 0x0, symName: __ZNSt3__122__compressed_pair_elemImLi0ELb0EEC2B8ne180100IivEEOT_, symObjAddr: 0xC764, symBinAddr: 0x10000E624, symSize: 0x24 }
  - { offset: 0x21F85, size: 0x8, addend: 0x0, symName: __ZNSt3__122__compressed_pair_elemINS_4lessIiEELi1ELb1EEC2B8ne180100IRKS2_vEEOT_, symObjAddr: 0xC788, symBinAddr: 0x10000E648, symSize: 0x18 }
  - { offset: 0x21FC7, size: 0x8, addend: 0x0, symName: __ZNSt3__114pointer_traitsIPNS_15__tree_end_nodeIPNS_16__tree_node_baseIPvEEEEE10pointer_toB8ne180100ERS6_, symObjAddr: 0xC7A0, symBinAddr: 0x10000E660, symSize: 0x14 }
  - { offset: 0x21FEA, size: 0x8, addend: 0x0, symName: __ZNSt3__117__compressed_pairINS_15__tree_end_nodeIPNS_16__tree_node_baseIPvEEEENS_9allocatorINS_11__tree_nodeIiS3_EEEEE5firstB8ne180100Ev, symObjAddr: 0xC7B4, symBinAddr: 0x10000E674, symSize: 0x24 }
  - { offset: 0x22010, size: 0x8, addend: 0x0, symName: __ZNSt3__122__compressed_pair_elemINS_15__tree_end_nodeIPNS_16__tree_node_baseIPvEEEELi0ELb0EE5__getB8ne180100Ev, symObjAddr: 0xC7D8, symBinAddr: 0x10000E698, symSize: 0x14 }
  - { offset: 0x22036, size: 0x8, addend: 0x0, symName: __ZNSt3__13setIiNS_4lessIiEENS_9allocatorIiEEED2B8ne180100Ev, symObjAddr: 0xC7EC, symBinAddr: 0x10000E6AC, symSize: 0x2C }
  - { offset: 0x22060, size: 0x8, addend: 0x0, symName: __ZNSt3__16__treeIiNS_4lessIiEENS_9allocatorIiEEED1Ev, symObjAddr: 0xC818, symBinAddr: 0x10000E6D8, symSize: 0x2C }
  - { offset: 0x2208C, size: 0x8, addend: 0x0, symName: __ZNSt3__16__treeIiNS_4lessIiEENS_9allocatorIiEEED2Ev, symObjAddr: 0xC844, symBinAddr: 0x10000E704, symSize: 0x38 }
  - { offset: 0x220B8, size: 0x8, addend: 0x0, symName: __ZNSt3__16__treeIiNS_4lessIiEENS_9allocatorIiEEE7destroyEPNS_11__tree_nodeIiPvEE, symObjAddr: 0xC87C, symBinAddr: 0x10000E73C, symSize: 0xAC }
  - { offset: 0x22104, size: 0x8, addend: 0x0, symName: __ZNKSt3__16__treeIiNS_4lessIiEENS_9allocatorIiEEE6__rootB8ne180100Ev, symObjAddr: 0xC928, symBinAddr: 0x10000E7E8, symSize: 0x28 }
  - { offset: 0x2212A, size: 0x8, addend: 0x0, symName: __ZNSt3__16__treeIiNS_4lessIiEENS_9allocatorIiEEE12__node_allocB8ne180100Ev, symObjAddr: 0xC950, symBinAddr: 0x10000E810, symSize: 0x28 }
  - { offset: 0x22150, size: 0x8, addend: 0x0, symName: __ZNSt3__116allocator_traitsINS_9allocatorINS_11__tree_nodeIiPvEEEEE7destroyB8ne180100IivvEEvRS5_PT_, symObjAddr: 0xC978, symBinAddr: 0x10000E838, symSize: 0x28 }
  - { offset: 0x2218B, size: 0x8, addend: 0x0, symName: __ZNSt3__122__tree_key_value_typesIiE9__get_ptrB8ne180100ERi, symObjAddr: 0xC9A0, symBinAddr: 0x10000E860, symSize: 0x14 }
  - { offset: 0x221AF, size: 0x8, addend: 0x0, symName: __ZNSt3__116allocator_traitsINS_9allocatorINS_11__tree_nodeIiPvEEEEE10deallocateB8ne180100ERS5_PS4_m, symObjAddr: 0xC9B4, symBinAddr: 0x10000E874, symSize: 0x34 }
  - { offset: 0x221F1, size: 0x8, addend: 0x0, symName: __ZNSt3__117__compressed_pairINS_15__tree_end_nodeIPNS_16__tree_node_baseIPvEEEENS_9allocatorINS_11__tree_nodeIiS3_EEEEE6secondB8ne180100Ev, symObjAddr: 0xC9E8, symBinAddr: 0x10000E8A8, symSize: 0x24 }
  - { offset: 0x22217, size: 0x8, addend: 0x0, symName: __ZNSt3__122__compressed_pair_elemINS_9allocatorINS_11__tree_nodeIiPvEEEELi1ELb1EE5__getB8ne180100Ev, symObjAddr: 0xCA0C, symBinAddr: 0x10000E8CC, symSize: 0x14 }
  - { offset: 0x2223D, size: 0x8, addend: 0x0, symName: __ZNSt3__19allocatorINS_11__tree_nodeIiPvEEE10deallocateB8ne180100EPS3_m, symObjAddr: 0xCA30, symBinAddr: 0x10000E8F0, symSize: 0x40 }
  - { offset: 0x2227F, size: 0x8, addend: 0x0, symName: __ZNKSt3__16__treeIiNS_4lessIiEENS_9allocatorIiEEE10__end_nodeB8ne180100Ev, symObjAddr: 0xCA70, symBinAddr: 0x10000E930, symSize: 0x2C }
  - { offset: 0x222A5, size: 0x8, addend: 0x0, symName: __ZNKSt3__117__compressed_pairINS_15__tree_end_nodeIPNS_16__tree_node_baseIPvEEEENS_9allocatorINS_11__tree_nodeIiS3_EEEEE5firstB8ne180100Ev, symObjAddr: 0xCA9C, symBinAddr: 0x10000E95C, symSize: 0x24 }
  - { offset: 0x222CB, size: 0x8, addend: 0x0, symName: __ZNKSt3__122__compressed_pair_elemINS_15__tree_end_nodeIPNS_16__tree_node_baseIPvEEEELi0ELb0EE5__getB8ne180100Ev, symObjAddr: 0xCAC0, symBinAddr: 0x10000E980, symSize: 0x14 }
  - { offset: 0x222F1, size: 0x8, addend: 0x0, symName: __ZNSt3__16vectorIdNS_9allocatorIdEEE9__end_capB8ne180100Ev, symObjAddr: 0xCAD4, symBinAddr: 0x10000E994, symSize: 0x28 }
  - { offset: 0x2231D, size: 0x8, addend: 0x0, symName: __ZNSt3__16vectorIdNS_9allocatorIdEEE22__construct_one_at_endB8ne180100IJdEEEvDpOT_, symObjAddr: 0xCAFC, symBinAddr: 0x10000E9BC, symSize: 0x90 }
  - { offset: 0x2236C, size: 0x8, addend: 0x0, symName: __ZNSt3__16vectorIdNS_9allocatorIdEEE21__push_back_slow_pathIdEEPdOT_, symObjAddr: 0xCB8C, symBinAddr: 0x10000EA4C, symSize: 0xE8 }
  - { offset: 0x223CA, size: 0x8, addend: 0x0, symName: __ZNSt3__117__compressed_pairIPdNS_9allocatorIdEEE5firstB8ne180100Ev, symObjAddr: 0xCC74, symBinAddr: 0x10000EB34, symSize: 0x24 }
  - { offset: 0x223F0, size: 0x8, addend: 0x0, symName: __ZNSt3__122__compressed_pair_elemIPdLi0ELb0EE5__getB8ne180100Ev, symObjAddr: 0xCC98, symBinAddr: 0x10000EB58, symSize: 0x14 }
  - { offset: 0x22432, size: 0x8, addend: 0x0, symName: __ZNSt3__16vectorIdNS_9allocatorIdEEE21_ConstructTransactionC1B8ne180100ERS3_m, symObjAddr: 0xCCAC, symBinAddr: 0x10000EB6C, symSize: 0x3C }
  - { offset: 0x2247A, size: 0x8, addend: 0x0, symName: __ZNSt3__116allocator_traitsINS_9allocatorIdEEE9constructB8ne180100IdJdEvEEvRS2_PT_DpOT0_, symObjAddr: 0xCCE8, symBinAddr: 0x10000EBA8, symSize: 0x34 }
  - { offset: 0x224D1, size: 0x8, addend: 0x0, symName: __ZNSt3__16vectorIdNS_9allocatorIdEEE21_ConstructTransactionD1B8ne180100Ev, symObjAddr: 0xCD1C, symBinAddr: 0x10000EBDC, symSize: 0x2C }
  - { offset: 0x224FB, size: 0x8, addend: 0x0, symName: __ZNSt3__16vectorIdNS_9allocatorIdEEE21_ConstructTransactionC2B8ne180100ERS3_m, symObjAddr: 0xCD48, symBinAddr: 0x10000EC08, symSize: 0x44 }
  - { offset: 0x22543, size: 0x8, addend: 0x0, symName: __ZNSt3__19allocatorIdE9constructB8ne180100IdJdEEEvPT_DpOT0_, symObjAddr: 0xCD8C, symBinAddr: 0x10000EC4C, symSize: 0x28 }
  - { offset: 0x22599, size: 0x8, addend: 0x0, symName: __ZNSt3__16vectorIdNS_9allocatorIdEEE21_ConstructTransactionD2B8ne180100Ev, symObjAddr: 0xCDB4, symBinAddr: 0x10000EC74, symSize: 0x20 }
  - { offset: 0x225C3, size: 0x8, addend: 0x0, symName: __ZNKSt3__16vectorIdNS_9allocatorIdEEE11__recommendB8ne180100Em, symObjAddr: 0xCDD4, symBinAddr: 0x10000EC94, symSize: 0xB4 }
  - { offset: 0x22618, size: 0x8, addend: 0x0, symName: __ZNKSt3__16vectorIdNS_9allocatorIdEEE4sizeB8ne180100Ev, symObjAddr: 0xCE88, symBinAddr: 0x10000ED48, symSize: 0x28 }
  - { offset: 0x2263E, size: 0x8, addend: 0x0, symName: __ZNSt3__114__split_bufferIdRNS_9allocatorIdEEEC1EmmS3_, symObjAddr: 0xCEB0, symBinAddr: 0x10000ED70, symSize: 0x44 }
  - { offset: 0x22694, size: 0x8, addend: 0x0, symName: __ZNSt3__114__split_bufferIdRNS_9allocatorIdEEED1Ev, symObjAddr: 0xD004, symBinAddr: 0x10000EEC4, symSize: 0x2C }
  - { offset: 0x226C0, size: 0x8, addend: 0x0, symName: __ZNKSt3__16vectorIdNS_9allocatorIdEEE8max_sizeEv, symObjAddr: 0xD030, symBinAddr: 0x10000EEF0, symSize: 0x60 }
  - { offset: 0x226E8, size: 0x8, addend: 0x0, symName: __ZNKSt3__16vectorIdNS_9allocatorIdEEE20__throw_length_errorB8ne180100Ev, symObjAddr: 0xD090, symBinAddr: 0x10000EF50, symSize: 0x1C }
  - { offset: 0x22719, size: 0x8, addend: 0x0, symName: __ZNSt3__116allocator_traitsINS_9allocatorIdEEE8max_sizeB8ne180100IS2_vEEmRKS2_, symObjAddr: 0xD0AC, symBinAddr: 0x10000EF6C, symSize: 0x24 }
  - { offset: 0x22747, size: 0x8, addend: 0x0, symName: __ZNKSt3__16vectorIdNS_9allocatorIdEEE7__allocB8ne180100Ev, symObjAddr: 0xD0D0, symBinAddr: 0x10000EF90, symSize: 0x28 }
  - { offset: 0x2276D, size: 0x8, addend: 0x0, symName: __ZNKSt3__19allocatorIdE8max_sizeB8ne180100Ev, symObjAddr: 0xD0F8, symBinAddr: 0x10000EFB8, symSize: 0x14 }
  - { offset: 0x22793, size: 0x8, addend: 0x0, symName: __ZNKSt3__117__compressed_pairIPdNS_9allocatorIdEEE6secondB8ne180100Ev, symObjAddr: 0xD10C, symBinAddr: 0x10000EFCC, symSize: 0x24 }
  - { offset: 0x227B9, size: 0x8, addend: 0x0, symName: __ZNKSt3__122__compressed_pair_elemINS_9allocatorIdEELi1ELb1EE5__getB8ne180100Ev, symObjAddr: 0xD130, symBinAddr: 0x10000EFF0, symSize: 0x14 }
  - { offset: 0x227DF, size: 0x8, addend: 0x0, symName: __ZNSt3__114__split_bufferIdRNS_9allocatorIdEEEC2EmmS3_, symObjAddr: 0xD144, symBinAddr: 0x10000F004, symSize: 0xD4 }
  - { offset: 0x22853, size: 0x8, addend: 0x0, symName: __ZNSt3__117__compressed_pairIPdRNS_9allocatorIdEEEC1B8ne180100IDnS4_EEOT_OT0_, symObjAddr: 0xD218, symBinAddr: 0x10000F0D8, symSize: 0x3C }
  - { offset: 0x228AB, size: 0x8, addend: 0x0, symName: __ZNSt3__114__split_bufferIdRNS_9allocatorIdEEE7__allocB8ne180100Ev, symObjAddr: 0xD294, symBinAddr: 0x10000F154, symSize: 0x28 }
  - { offset: 0x228D1, size: 0x8, addend: 0x0, symName: __ZNSt3__114__split_bufferIdRNS_9allocatorIdEEE9__end_capB8ne180100Ev, symObjAddr: 0xD2BC, symBinAddr: 0x10000F17C, symSize: 0x28 }
  - { offset: 0x228F7, size: 0x8, addend: 0x0, symName: __ZNSt3__117__compressed_pairIPdRNS_9allocatorIdEEEC2B8ne180100IDnS4_EEOT_OT0_, symObjAddr: 0xD2E4, symBinAddr: 0x10000F1A4, symSize: 0x48 }
  - { offset: 0x2294F, size: 0x8, addend: 0x0, symName: __ZNSt3__122__compressed_pair_elemIRNS_9allocatorIdEELi1ELb0EEC2B8ne180100IS3_vEEOT_, symObjAddr: 0xD32C, symBinAddr: 0x10000F1EC, symSize: 0x20 }
  - { offset: 0x22991, size: 0x8, addend: 0x0, symName: __ZNSt3__19allocatorIdE8allocateB8ne180100Em, symObjAddr: 0xD34C, symBinAddr: 0x10000F20C, symSize: 0x58 }
  - { offset: 0x229C5, size: 0x8, addend: 0x0, symName: __ZNSt3__117__compressed_pairIPdRNS_9allocatorIdEEE6secondB8ne180100Ev, symObjAddr: 0xD3A4, symBinAddr: 0x10000F264, symSize: 0x28 }
  - { offset: 0x229EB, size: 0x8, addend: 0x0, symName: __ZNSt3__122__compressed_pair_elemIRNS_9allocatorIdEELi1ELb0EE5__getB8ne180100Ev, symObjAddr: 0xD3CC, symBinAddr: 0x10000F28C, symSize: 0x18 }
  - { offset: 0x22A11, size: 0x8, addend: 0x0, symName: __ZNSt3__117__compressed_pairIPdRNS_9allocatorIdEEE5firstB8ne180100Ev, symObjAddr: 0xD3E4, symBinAddr: 0x10000F2A4, symSize: 0x24 }
  - { offset: 0x22A37, size: 0x8, addend: 0x0, symName: __ZNSt3__116reverse_iteratorIPdEC1B8ne180100ES1_, symObjAddr: 0xD480, symBinAddr: 0x10000F340, symSize: 0x34 }
  - { offset: 0x22A6F, size: 0x8, addend: 0x0, symName: __ZNKSt3__116reverse_iteratorIPdE4baseB8ne180100Ev, symObjAddr: 0xD4B4, symBinAddr: 0x10000F374, symSize: 0x18 }
  - { offset: 0x22A95, size: 0x8, addend: 0x0, symName: __ZNKSt3__16vectorIdNS_9allocatorIdEEE14__annotate_newB8ne180100Em, symObjAddr: 0xD508, symBinAddr: 0x10000F3C8, symSize: 0x14 }
  - { offset: 0x22AE7, size: 0x8, addend: 0x0, symName: __ZNKSt3__111__move_loopINS_17_ClassicAlgPolicyEEclB8ne180100INS_16reverse_iteratorIPdEES6_S6_EENS_4pairIT_T1_EES8_T0_S9_, symObjAddr: 0xD80C, symBinAddr: 0x10000F6CC, symSize: 0xA0 }
  - { offset: 0x22B58, size: 0x8, addend: 0x0, symName: __ZNSt3__18_IterOpsINS_17_ClassicAlgPolicyEE11__iter_moveB8ne180100IRNS_16reverse_iteratorIPdEELi0EEEDTclsr3stdE4movedeclsr3stdE7declvalIRT_EEEEOS8_, symObjAddr: 0xDA40, symBinAddr: 0x10000F900, symSize: 0x28 }
  - { offset: 0x22B8A, size: 0x8, addend: 0x0, symName: __ZNKSt3__116reverse_iteratorIPdEdeB8ne180100Ev, symObjAddr: 0xDA68, symBinAddr: 0x10000F928, symSize: 0x28 }
  - { offset: 0x22BBE, size: 0x8, addend: 0x0, symName: __ZNSt3__116reverse_iteratorIPdEppB8ne180100Ev, symObjAddr: 0xDA90, symBinAddr: 0x10000F950, symSize: 0x20 }
  - { offset: 0x22BE4, size: 0x8, addend: 0x0, symName: __ZNSt3__18_IterOpsINS_17_ClassicAlgPolicyEE25__validate_iter_referenceB8ne180100IRNS_16reverse_iteratorIPdEEEEvv, symObjAddr: 0xDAB0, symBinAddr: 0x10000F970, symSize: 0x4 }
  - { offset: 0x22C02, size: 0x8, addend: 0x0, symName: __ZNSt3__118__unwrap_iter_implINS_16reverse_iteratorIPdEELb0EE8__unwrapB8ne180100ES3_, symObjAddr: 0xDAB4, symBinAddr: 0x10000F974, symSize: 0x24 }
  - { offset: 0x22C2B, size: 0x8, addend: 0x0, symName: __ZNSt3__14pairINS_16reverse_iteratorIPdEES3_EC1B8ne180100IS3_S3_Li0EEEOT_OT0_, symObjAddr: 0xDAD8, symBinAddr: 0x10000F998, symSize: 0x3C }
  - { offset: 0x22C89, size: 0x8, addend: 0x0, symName: __ZNSt3__14pairINS_16reverse_iteratorIPdEES3_EC2B8ne180100IS3_S3_Li0EEEOT_OT0_, symObjAddr: 0xDB14, symBinAddr: 0x10000F9D4, symSize: 0x34 }
  - { offset: 0x22CE7, size: 0x8, addend: 0x0, symName: __ZNSt3__118__unwrap_iter_implINS_16reverse_iteratorIPdEELb0EE8__rewrapB8ne180100ES3_S3_, symObjAddr: 0xDB48, symBinAddr: 0x10000FA08, symSize: 0x2C }
  - { offset: 0x22D15, size: 0x8, addend: 0x0, symName: __ZNSt3__116reverse_iteratorIPdEC2B8ne180100ES1_, symObjAddr: 0xDB74, symBinAddr: 0x10000FA34, symSize: 0x28 }
  - { offset: 0x22D4D, size: 0x8, addend: 0x0, symName: __ZNSt3__114__split_bufferIdRNS_9allocatorIdEEED2Ev, symObjAddr: 0xDB9C, symBinAddr: 0x10000FA5C, symSize: 0x8C }
  - { offset: 0x22D79, size: 0x8, addend: 0x0, symName: __ZNSt3__114__split_bufferIdRNS_9allocatorIdEEE5clearB8ne180100Ev, symObjAddr: 0xDC28, symBinAddr: 0x10000FAE8, symSize: 0x28 }
  - { offset: 0x22D9F, size: 0x8, addend: 0x0, symName: __ZNKSt3__114__split_bufferIdRNS_9allocatorIdEEE8capacityB8ne180100Ev, symObjAddr: 0xDC50, symBinAddr: 0x10000FB10, symSize: 0x40 }
  - { offset: 0x22DC5, size: 0x8, addend: 0x0, symName: __ZNSt3__114__split_bufferIdRNS_9allocatorIdEEE17__destruct_at_endB8ne180100EPd, symObjAddr: 0xDC90, symBinAddr: 0x10000FB50, symSize: 0x2C }
  - { offset: 0x22DF9, size: 0x8, addend: 0x0, symName: __ZNSt3__114__split_bufferIdRNS_9allocatorIdEEE17__destruct_at_endB8ne180100EPdNS_17integral_constantIbLb0EEE, symObjAddr: 0xDCBC, symBinAddr: 0x10000FB7C, symSize: 0x80 }
  - { offset: 0x22E3A, size: 0x8, addend: 0x0, symName: __ZNKSt3__114__split_bufferIdRNS_9allocatorIdEEE9__end_capB8ne180100Ev, symObjAddr: 0xDD3C, symBinAddr: 0x10000FBFC, symSize: 0x28 }
  - { offset: 0x22E60, size: 0x8, addend: 0x0, symName: __ZNKSt3__117__compressed_pairIPdRNS_9allocatorIdEEE5firstB8ne180100Ev, symObjAddr: 0xDD64, symBinAddr: 0x10000FC24, symSize: 0x24 }
  - { offset: 0x22E86, size: 0x8, addend: 0x0, symName: __ZNSt3__16vectorIiNS_9allocatorIiEEE9__end_capB8ne180100Ev, symObjAddr: 0xDD88, symBinAddr: 0x10000FC48, symSize: 0x28 }
  - { offset: 0x22EAC, size: 0x8, addend: 0x0, symName: __ZNSt3__16vectorIiNS_9allocatorIiEEE22__construct_one_at_endB8ne180100IJiEEEvDpOT_, symObjAddr: 0xDDB0, symBinAddr: 0x10000FC70, symSize: 0x90 }
  - { offset: 0x22EFB, size: 0x8, addend: 0x0, symName: __ZNSt3__16vectorIiNS_9allocatorIiEEE21__push_back_slow_pathIiEEPiOT_, symObjAddr: 0xDE40, symBinAddr: 0x10000FD00, symSize: 0xE8 }
  - { offset: 0x22F59, size: 0x8, addend: 0x0, symName: __ZNSt3__117__compressed_pairIPiNS_9allocatorIiEEE5firstB8ne180100Ev, symObjAddr: 0xDF28, symBinAddr: 0x10000FDE8, symSize: 0x24 }
  - { offset: 0x22F7F, size: 0x8, addend: 0x0, symName: __ZNSt3__122__compressed_pair_elemIPiLi0ELb0EE5__getB8ne180100Ev, symObjAddr: 0xDF4C, symBinAddr: 0x10000FE0C, symSize: 0x14 }
  - { offset: 0x22FC1, size: 0x8, addend: 0x0, symName: __ZNSt3__16vectorIiNS_9allocatorIiEEE21_ConstructTransactionC1B8ne180100ERS3_m, symObjAddr: 0xDF60, symBinAddr: 0x10000FE20, symSize: 0x3C }
  - { offset: 0x23009, size: 0x8, addend: 0x0, symName: __ZNSt3__116allocator_traitsINS_9allocatorIiEEE9constructB8ne180100IiJiEvEEvRS2_PT_DpOT0_, symObjAddr: 0xDF9C, symBinAddr: 0x10000FE5C, symSize: 0x34 }
  - { offset: 0x23060, size: 0x8, addend: 0x0, symName: __ZNSt3__16vectorIiNS_9allocatorIiEEE21_ConstructTransactionD1B8ne180100Ev, symObjAddr: 0xDFD0, symBinAddr: 0x10000FE90, symSize: 0x2C }
  - { offset: 0x2308A, size: 0x8, addend: 0x0, symName: __ZNSt3__16vectorIiNS_9allocatorIiEEE21_ConstructTransactionC2B8ne180100ERS3_m, symObjAddr: 0xDFFC, symBinAddr: 0x10000FEBC, symSize: 0x44 }
  - { offset: 0x230D2, size: 0x8, addend: 0x0, symName: __ZNSt3__19allocatorIiE9constructB8ne180100IiJiEEEvPT_DpOT0_, symObjAddr: 0xE040, symBinAddr: 0x10000FF00, symSize: 0x28 }
  - { offset: 0x23128, size: 0x8, addend: 0x0, symName: __ZNSt3__16vectorIiNS_9allocatorIiEEE21_ConstructTransactionD2B8ne180100Ev, symObjAddr: 0xE068, symBinAddr: 0x10000FF28, symSize: 0x20 }
  - { offset: 0x23152, size: 0x8, addend: 0x0, symName: __ZNKSt3__16vectorIiNS_9allocatorIiEEE11__recommendB8ne180100Em, symObjAddr: 0xE088, symBinAddr: 0x10000FF48, symSize: 0xB4 }
  - { offset: 0x231A7, size: 0x8, addend: 0x0, symName: __ZNSt3__114__split_bufferIiRNS_9allocatorIiEEEC1EmmS3_, symObjAddr: 0xE13C, symBinAddr: 0x10000FFFC, symSize: 0x44 }
  - { offset: 0x231FD, size: 0x8, addend: 0x0, symName: __ZNSt3__114__split_bufferIiRNS_9allocatorIiEEED1Ev, symObjAddr: 0xE290, symBinAddr: 0x100010150, symSize: 0x2C }
  - { offset: 0x23229, size: 0x8, addend: 0x0, symName: __ZNKSt3__16vectorIiNS_9allocatorIiEEE8max_sizeEv, symObjAddr: 0xE2BC, symBinAddr: 0x10001017C, symSize: 0x60 }
  - { offset: 0x23251, size: 0x8, addend: 0x0, symName: __ZNKSt3__16vectorIiNS_9allocatorIiEEE20__throw_length_errorB8ne180100Ev, symObjAddr: 0xE31C, symBinAddr: 0x1000101DC, symSize: 0x1C }
  - { offset: 0x23282, size: 0x8, addend: 0x0, symName: __ZNSt3__116allocator_traitsINS_9allocatorIiEEE8max_sizeB8ne180100IS2_vEEmRKS2_, symObjAddr: 0xE338, symBinAddr: 0x1000101F8, symSize: 0x24 }
  - { offset: 0x232B0, size: 0x8, addend: 0x0, symName: __ZNKSt3__16vectorIiNS_9allocatorIiEEE7__allocB8ne180100Ev, symObjAddr: 0xE35C, symBinAddr: 0x10001021C, symSize: 0x28 }
  - { offset: 0x232D6, size: 0x8, addend: 0x0, symName: __ZNKSt3__19allocatorIiE8max_sizeB8ne180100Ev, symObjAddr: 0xE384, symBinAddr: 0x100010244, symSize: 0x14 }
  - { offset: 0x232FC, size: 0x8, addend: 0x0, symName: __ZNKSt3__117__compressed_pairIPiNS_9allocatorIiEEE6secondB8ne180100Ev, symObjAddr: 0xE398, symBinAddr: 0x100010258, symSize: 0x24 }
  - { offset: 0x23322, size: 0x8, addend: 0x0, symName: __ZNKSt3__122__compressed_pair_elemINS_9allocatorIiEELi1ELb1EE5__getB8ne180100Ev, symObjAddr: 0xE3BC, symBinAddr: 0x10001027C, symSize: 0x14 }
  - { offset: 0x23348, size: 0x8, addend: 0x0, symName: __ZNSt3__114__split_bufferIiRNS_9allocatorIiEEEC2EmmS3_, symObjAddr: 0xE3D0, symBinAddr: 0x100010290, symSize: 0xD4 }
  - { offset: 0x233BC, size: 0x8, addend: 0x0, symName: __ZNSt3__117__compressed_pairIPiRNS_9allocatorIiEEEC1B8ne180100IDnS4_EEOT_OT0_, symObjAddr: 0xE4A4, symBinAddr: 0x100010364, symSize: 0x3C }
  - { offset: 0x23414, size: 0x8, addend: 0x0, symName: __ZNSt3__114__split_bufferIiRNS_9allocatorIiEEE7__allocB8ne180100Ev, symObjAddr: 0xE520, symBinAddr: 0x1000103E0, symSize: 0x28 }
  - { offset: 0x2343A, size: 0x8, addend: 0x0, symName: __ZNSt3__114__split_bufferIiRNS_9allocatorIiEEE9__end_capB8ne180100Ev, symObjAddr: 0xE548, symBinAddr: 0x100010408, symSize: 0x28 }
  - { offset: 0x23460, size: 0x8, addend: 0x0, symName: __ZNSt3__117__compressed_pairIPiRNS_9allocatorIiEEEC2B8ne180100IDnS4_EEOT_OT0_, symObjAddr: 0xE570, symBinAddr: 0x100010430, symSize: 0x48 }
  - { offset: 0x234B8, size: 0x8, addend: 0x0, symName: __ZNSt3__122__compressed_pair_elemIRNS_9allocatorIiEELi1ELb0EEC2B8ne180100IS3_vEEOT_, symObjAddr: 0xE5B8, symBinAddr: 0x100010478, symSize: 0x20 }
  - { offset: 0x234FA, size: 0x8, addend: 0x0, symName: __ZNSt3__19allocatorIiE8allocateB8ne180100Em, symObjAddr: 0xE5D8, symBinAddr: 0x100010498, symSize: 0x58 }
  - { offset: 0x2352E, size: 0x8, addend: 0x0, symName: __ZNSt3__117__compressed_pairIPiRNS_9allocatorIiEEE6secondB8ne180100Ev, symObjAddr: 0xE630, symBinAddr: 0x1000104F0, symSize: 0x28 }
  - { offset: 0x23554, size: 0x8, addend: 0x0, symName: __ZNSt3__122__compressed_pair_elemIRNS_9allocatorIiEELi1ELb0EE5__getB8ne180100Ev, symObjAddr: 0xE658, symBinAddr: 0x100010518, symSize: 0x18 }
  - { offset: 0x2357A, size: 0x8, addend: 0x0, symName: __ZNSt3__117__compressed_pairIPiRNS_9allocatorIiEEE5firstB8ne180100Ev, symObjAddr: 0xE670, symBinAddr: 0x100010530, symSize: 0x24 }
  - { offset: 0x235A0, size: 0x8, addend: 0x0, symName: __ZNSt3__116reverse_iteratorIPiEC1B8ne180100ES1_, symObjAddr: 0xE70C, symBinAddr: 0x1000105CC, symSize: 0x34 }
  - { offset: 0x235D8, size: 0x8, addend: 0x0, symName: __ZNKSt3__116reverse_iteratorIPiE4baseB8ne180100Ev, symObjAddr: 0xE740, symBinAddr: 0x100010600, symSize: 0x18 }
  - { offset: 0x235FE, size: 0x8, addend: 0x0, symName: __ZNKSt3__16vectorIiNS_9allocatorIiEEE14__annotate_newB8ne180100Em, symObjAddr: 0xE794, symBinAddr: 0x100010654, symSize: 0x14 }
  - { offset: 0x23650, size: 0x8, addend: 0x0, symName: __ZNKSt3__111__move_loopINS_17_ClassicAlgPolicyEEclB8ne180100INS_16reverse_iteratorIPiEES6_S6_EENS_4pairIT_T1_EES8_T0_S9_, symObjAddr: 0xEA98, symBinAddr: 0x100010958, symSize: 0xA0 }
  - { offset: 0x236C1, size: 0x8, addend: 0x0, symName: __ZNSt3__18_IterOpsINS_17_ClassicAlgPolicyEE11__iter_moveB8ne180100IRNS_16reverse_iteratorIPiEELi0EEEDTclsr3stdE4movedeclsr3stdE7declvalIRT_EEEEOS8_, symObjAddr: 0xECCC, symBinAddr: 0x100010B8C, symSize: 0x28 }
  - { offset: 0x236F3, size: 0x8, addend: 0x0, symName: __ZNKSt3__116reverse_iteratorIPiEdeB8ne180100Ev, symObjAddr: 0xECF4, symBinAddr: 0x100010BB4, symSize: 0x28 }
  - { offset: 0x23727, size: 0x8, addend: 0x0, symName: __ZNSt3__116reverse_iteratorIPiEppB8ne180100Ev, symObjAddr: 0xED1C, symBinAddr: 0x100010BDC, symSize: 0x20 }
  - { offset: 0x2374D, size: 0x8, addend: 0x0, symName: __ZNSt3__18_IterOpsINS_17_ClassicAlgPolicyEE25__validate_iter_referenceB8ne180100IRNS_16reverse_iteratorIPiEEEEvv, symObjAddr: 0xED3C, symBinAddr: 0x100010BFC, symSize: 0x4 }
  - { offset: 0x2376B, size: 0x8, addend: 0x0, symName: __ZNSt3__118__unwrap_iter_implINS_16reverse_iteratorIPiEELb0EE8__unwrapB8ne180100ES3_, symObjAddr: 0xED40, symBinAddr: 0x100010C00, symSize: 0x24 }
  - { offset: 0x23794, size: 0x8, addend: 0x0, symName: __ZNSt3__14pairINS_16reverse_iteratorIPiEES3_EC1B8ne180100IS3_S3_Li0EEEOT_OT0_, symObjAddr: 0xED64, symBinAddr: 0x100010C24, symSize: 0x3C }
  - { offset: 0x237F2, size: 0x8, addend: 0x0, symName: __ZNSt3__14pairINS_16reverse_iteratorIPiEES3_EC2B8ne180100IS3_S3_Li0EEEOT_OT0_, symObjAddr: 0xEDA0, symBinAddr: 0x100010C60, symSize: 0x34 }
  - { offset: 0x23850, size: 0x8, addend: 0x0, symName: __ZNSt3__118__unwrap_iter_implINS_16reverse_iteratorIPiEELb0EE8__rewrapB8ne180100ES3_S3_, symObjAddr: 0xEDD4, symBinAddr: 0x100010C94, symSize: 0x2C }
  - { offset: 0x2387E, size: 0x8, addend: 0x0, symName: __ZNSt3__116reverse_iteratorIPiEC2B8ne180100ES1_, symObjAddr: 0xEE00, symBinAddr: 0x100010CC0, symSize: 0x28 }
  - { offset: 0x238B6, size: 0x8, addend: 0x0, symName: __ZNSt3__114__split_bufferIiRNS_9allocatorIiEEED2Ev, symObjAddr: 0xEE28, symBinAddr: 0x100010CE8, symSize: 0x8C }
  - { offset: 0x238E2, size: 0x8, addend: 0x0, symName: __ZNSt3__114__split_bufferIiRNS_9allocatorIiEEE5clearB8ne180100Ev, symObjAddr: 0xEEB4, symBinAddr: 0x100010D74, symSize: 0x28 }
  - { offset: 0x23908, size: 0x8, addend: 0x0, symName: __ZNKSt3__114__split_bufferIiRNS_9allocatorIiEEE8capacityB8ne180100Ev, symObjAddr: 0xEEDC, symBinAddr: 0x100010D9C, symSize: 0x40 }
  - { offset: 0x2392E, size: 0x8, addend: 0x0, symName: __ZNSt3__114__split_bufferIiRNS_9allocatorIiEEE17__destruct_at_endB8ne180100EPi, symObjAddr: 0xEF1C, symBinAddr: 0x100010DDC, symSize: 0x2C }
  - { offset: 0x23962, size: 0x8, addend: 0x0, symName: __ZNSt3__114__split_bufferIiRNS_9allocatorIiEEE17__destruct_at_endB8ne180100EPiNS_17integral_constantIbLb0EEE, symObjAddr: 0xEF48, symBinAddr: 0x100010E08, symSize: 0x80 }
  - { offset: 0x239A3, size: 0x8, addend: 0x0, symName: __ZNKSt3__114__split_bufferIiRNS_9allocatorIiEEE9__end_capB8ne180100Ev, symObjAddr: 0xEFC8, symBinAddr: 0x100010E88, symSize: 0x28 }
  - { offset: 0x239C9, size: 0x8, addend: 0x0, symName: __ZNKSt3__117__compressed_pairIPiRNS_9allocatorIiEEE5firstB8ne180100Ev, symObjAddr: 0xEFF0, symBinAddr: 0x100010EB0, symSize: 0x24 }
  - { offset: 0x239EF, size: 0x8, addend: 0x0, symName: __ZNSt3__16__treeIiNS_4lessIiEENS_9allocatorIiEEE15__insert_uniqueB8ne180100ERKi, symObjAddr: 0xF014, symBinAddr: 0x100010ED4, symSize: 0x50 }
  - { offset: 0x23A24, size: 0x8, addend: 0x0, symName: __ZNSt3__14pairINS_21__tree_const_iteratorIiPNS_11__tree_nodeIiPvEElEEbEC1B8ne180100INS_15__tree_iteratorIiS5_lEEbLi0EEEONS0_IT_T0_EE, symObjAddr: 0xF064, symBinAddr: 0x100010F24, symSize: 0x34 }
  - { offset: 0x23A74, size: 0x8, addend: 0x0, symName: __ZNSt3__16__treeIiNS_4lessIiEENS_9allocatorIiEEE25__emplace_unique_key_argsIiJRKiEEENS_4pairINS_15__tree_iteratorIiPNS_11__tree_nodeIiPvEElEEbEERKT_DpOT0_, symObjAddr: 0xF098, symBinAddr: 0x100010F58, symSize: 0xF0 }
  - { offset: 0x23B20, size: 0x8, addend: 0x0, symName: __ZNSt3__122__tree_key_value_typesIiE9__get_keyB8ne180100ERKi, symObjAddr: 0xF188, symBinAddr: 0x100011048, symSize: 0x14 }
  - { offset: 0x23B44, size: 0x8, addend: 0x0, symName: __ZNSt3__16__treeIiNS_4lessIiEENS_9allocatorIiEEE12__find_equalIiEERPNS_16__tree_node_baseIPvEERPNS_15__tree_end_nodeISA_EERKT_, symObjAddr: 0xF19C, symBinAddr: 0x10001105C, symSize: 0x184 }
  - { offset: 0x23BB1, size: 0x8, addend: 0x0, symName: __ZNSt3__16__treeIiNS_4lessIiEENS_9allocatorIiEEE16__construct_nodeIJRKiEEENS_10unique_ptrINS_11__tree_nodeIiPvEENS_22__tree_node_destructorINS3_ISC_EEEEEEDpOT_, symObjAddr: 0xF320, symBinAddr: 0x1000111E0, symSize: 0x108 }
  - { offset: 0x23C12, size: 0x8, addend: 0x0, symName: __ZNSt3__16__treeIiNS_4lessIiEENS_9allocatorIiEEE16__insert_node_atEPNS_15__tree_end_nodeIPNS_16__tree_node_baseIPvEEEERSA_SA_, symObjAddr: 0xF428, symBinAddr: 0x1000112E8, symSize: 0xCC }
  - { offset: 0x23C67, size: 0x8, addend: 0x0, symName: __ZNKSt3__110unique_ptrINS_11__tree_nodeIiPvEENS_22__tree_node_destructorINS_9allocatorIS3_EEEEE3getB8ne180100Ev, symObjAddr: 0xF4F4, symBinAddr: 0x1000113B4, symSize: 0x28 }
  - { offset: 0x23C8D, size: 0x8, addend: 0x0, symName: __ZNSt3__110unique_ptrINS_11__tree_nodeIiPvEENS_22__tree_node_destructorINS_9allocatorIS3_EEEEE7releaseB8ne180100Ev, symObjAddr: 0xF51C, symBinAddr: 0x1000113DC, symSize: 0x44 }
  - { offset: 0x23CC2, size: 0x8, addend: 0x0, symName: __ZNSt3__110unique_ptrINS_11__tree_nodeIiPvEENS_22__tree_node_destructorINS_9allocatorIS3_EEEEED1B8ne180100Ev, symObjAddr: 0xF560, symBinAddr: 0x100011420, symSize: 0x2C }
  - { offset: 0x23CEC, size: 0x8, addend: 0x0, symName: __ZNSt3__115__tree_iteratorIiPNS_11__tree_nodeIiPvEElEC1B8ne180100ES4_, symObjAddr: 0xF58C, symBinAddr: 0x10001144C, symSize: 0x34 }
  - { offset: 0x23D2B, size: 0x8, addend: 0x0, symName: __ZNSt3__14pairINS_15__tree_iteratorIiPNS_11__tree_nodeIiPvEElEEbEC1B8ne180100IS6_RbLi0EEEOT_OT0_, symObjAddr: 0xF5C0, symBinAddr: 0x100011480, symSize: 0x3C }
  - { offset: 0x23D89, size: 0x8, addend: 0x0, symName: __ZNKSt3__16__treeIiNS_4lessIiEENS_9allocatorIiEEE10__root_ptrB8ne180100Ev, symObjAddr: 0xF5FC, symBinAddr: 0x1000114BC, symSize: 0x24 }
  - { offset: 0x23DAF, size: 0x8, addend: 0x0, symName: __ZNSt3__16__treeIiNS_4lessIiEENS_9allocatorIiEEE10value_compB8ne180100Ev, symObjAddr: 0xF620, symBinAddr: 0x1000114E0, symSize: 0x28 }
  - { offset: 0x23DD5, size: 0x8, addend: 0x0, symName: __ZNKSt3__14lessIiEclB8ne180100ERKiS3_, symObjAddr: 0xF648, symBinAddr: 0x100011508, symSize: 0x34 }
  - { offset: 0x23E19, size: 0x8, addend: 0x0, symName: __ZNSt3__117__compressed_pairImNS_4lessIiEEE6secondB8ne180100Ev, symObjAddr: 0xF67C, symBinAddr: 0x10001153C, symSize: 0x24 }
  - { offset: 0x23E3F, size: 0x8, addend: 0x0, symName: __ZNSt3__122__compressed_pair_elemINS_4lessIiEELi1ELb1EE5__getB8ne180100Ev, symObjAddr: 0xF6A0, symBinAddr: 0x100011560, symSize: 0x14 }
  - { offset: 0x23E65, size: 0x8, addend: 0x0, symName: __ZNSt3__116allocator_traitsINS_9allocatorINS_11__tree_nodeIiPvEEEEE8allocateB8ne180100ERS5_m, symObjAddr: 0xF6B4, symBinAddr: 0x100011574, symSize: 0x2C }
  - { offset: 0x23E98, size: 0x8, addend: 0x0, symName: __ZNSt3__122__tree_node_destructorINS_9allocatorINS_11__tree_nodeIiPvEEEEEC1B8ne180100ERS5_b, symObjAddr: 0xF6E0, symBinAddr: 0x1000115A0, symSize: 0x48 }
  - { offset: 0x23EE6, size: 0x8, addend: 0x0, symName: __ZNSt3__110unique_ptrINS_11__tree_nodeIiPvEENS_22__tree_node_destructorINS_9allocatorIS3_EEEEEC1B8ne180100ILb1EvEEPS3_NS_16__dependent_typeINS_27__unique_ptr_deleter_sfinaeIS7_EEXT_EE20__good_rval_ref_typeE, symObjAddr: 0xF728, symBinAddr: 0x1000115E8, symSize: 0x3C }
  - { offset: 0x23F37, size: 0x8, addend: 0x0, symName: __ZNSt3__116allocator_traitsINS_9allocatorINS_11__tree_nodeIiPvEEEEE9constructB8ne180100IiJRKiEvEEvRS5_PT_DpOT0_, symObjAddr: 0xF764, symBinAddr: 0x100011624, symSize: 0x34 }
  - { offset: 0x23F8E, size: 0x8, addend: 0x0, symName: __ZNKSt3__110unique_ptrINS_11__tree_nodeIiPvEENS_22__tree_node_destructorINS_9allocatorIS3_EEEEEptB8ne180100Ev, symObjAddr: 0xF798, symBinAddr: 0x100011658, symSize: 0x28 }
  - { offset: 0x23FB4, size: 0x8, addend: 0x0, symName: __ZNSt3__110unique_ptrINS_11__tree_nodeIiPvEENS_22__tree_node_destructorINS_9allocatorIS3_EEEEE11get_deleterB8ne180100Ev, symObjAddr: 0xF7C0, symBinAddr: 0x100011680, symSize: 0x24 }
  - { offset: 0x23FDA, size: 0x8, addend: 0x0, symName: __ZNSt3__19allocatorINS_11__tree_nodeIiPvEEE8allocateB8ne180100Em, symObjAddr: 0xF7E4, symBinAddr: 0x1000116A4, symSize: 0x58 }
  - { offset: 0x24019, size: 0x8, addend: 0x0, symName: __ZNSt3__116allocator_traitsINS_9allocatorINS_11__tree_nodeIiPvEEEEE8max_sizeB8ne180100IS5_vEEmRKS5_, symObjAddr: 0xF83C, symBinAddr: 0x1000116FC, symSize: 0x24 }
  - { offset: 0x24047, size: 0x8, addend: 0x0, symName: __ZNKSt3__19allocatorINS_11__tree_nodeIiPvEEE8max_sizeB8ne180100Ev, symObjAddr: 0xF860, symBinAddr: 0x100011720, symSize: 0x14 }
  - { offset: 0x2406D, size: 0x8, addend: 0x0, symName: __ZNSt3__122__tree_node_destructorINS_9allocatorINS_11__tree_nodeIiPvEEEEEC2B8ne180100ERS5_b, symObjAddr: 0xF874, symBinAddr: 0x100011734, symSize: 0x38 }
  - { offset: 0x240B5, size: 0x8, addend: 0x0, symName: __ZNSt3__110unique_ptrINS_11__tree_nodeIiPvEENS_22__tree_node_destructorINS_9allocatorIS3_EEEEEC2B8ne180100ILb1EvEEPS3_NS_16__dependent_typeINS_27__unique_ptr_deleter_sfinaeIS7_EEXT_EE20__good_rval_ref_typeE, symObjAddr: 0xF8AC, symBinAddr: 0x10001176C, symSize: 0x48 }
  - { offset: 0x24106, size: 0x8, addend: 0x0, symName: __ZNSt3__117__compressed_pairIPNS_11__tree_nodeIiPvEENS_22__tree_node_destructorINS_9allocatorIS3_EEEEEC1B8ne180100IRS4_S8_EEOT_OT0_, symObjAddr: 0xF8F4, symBinAddr: 0x1000117B4, symSize: 0x3C }
  - { offset: 0x2415E, size: 0x8, addend: 0x0, symName: __ZNSt3__117__compressed_pairIPNS_11__tree_nodeIiPvEENS_22__tree_node_destructorINS_9allocatorIS3_EEEEEC2B8ne180100IRS4_S8_EEOT_OT0_, symObjAddr: 0xF930, symBinAddr: 0x1000117F0, symSize: 0x48 }
  - { offset: 0x241B6, size: 0x8, addend: 0x0, symName: __ZNSt3__122__compressed_pair_elemIPNS_11__tree_nodeIiPvEELi0ELb0EEC2B8ne180100IRS4_vEEOT_, symObjAddr: 0xF978, symBinAddr: 0x100011838, symSize: 0x24 }
  - { offset: 0x241F8, size: 0x8, addend: 0x0, symName: __ZNSt3__122__compressed_pair_elemINS_22__tree_node_destructorINS_9allocatorINS_11__tree_nodeIiPvEEEEEELi1ELb0EEC2B8ne180100IS7_vEEOT_, symObjAddr: 0xF99C, symBinAddr: 0x10001185C, symSize: 0x24 }
  - { offset: 0x2423A, size: 0x8, addend: 0x0, symName: __ZNSt3__19allocatorINS_11__tree_nodeIiPvEEE9constructB8ne180100IiJRKiEEEvPT_DpOT0_, symObjAddr: 0xF9C0, symBinAddr: 0x100011880, symSize: 0x28 }
  - { offset: 0x24290, size: 0x8, addend: 0x0, symName: __ZNKSt3__117__compressed_pairIPNS_11__tree_nodeIiPvEENS_22__tree_node_destructorINS_9allocatorIS3_EEEEE5firstB8ne180100Ev, symObjAddr: 0xF9E8, symBinAddr: 0x1000118A8, symSize: 0x24 }
  - { offset: 0x242B6, size: 0x8, addend: 0x0, symName: __ZNKSt3__122__compressed_pair_elemIPNS_11__tree_nodeIiPvEELi0ELb0EE5__getB8ne180100Ev, symObjAddr: 0xFA0C, symBinAddr: 0x1000118CC, symSize: 0x14 }
  - { offset: 0x242DC, size: 0x8, addend: 0x0, symName: __ZNSt3__117__compressed_pairIPNS_11__tree_nodeIiPvEENS_22__tree_node_destructorINS_9allocatorIS3_EEEEE6secondB8ne180100Ev, symObjAddr: 0xFA20, symBinAddr: 0x1000118E0, symSize: 0x28 }
  - { offset: 0x24302, size: 0x8, addend: 0x0, symName: __ZNSt3__122__compressed_pair_elemINS_22__tree_node_destructorINS_9allocatorINS_11__tree_nodeIiPvEEEEEELi1ELb0EE5__getB8ne180100Ev, symObjAddr: 0xFA48, symBinAddr: 0x100011908, symSize: 0x14 }
  - { offset: 0x24328, size: 0x8, addend: 0x0, symName: __ZNSt3__16__treeIiNS_4lessIiEENS_9allocatorIiEEE4sizeB8ne180100Ev, symObjAddr: 0xFD88, symBinAddr: 0x100011C48, symSize: 0x28 }
  - { offset: 0x2434E, size: 0x8, addend: 0x0, symName: __ZNKSt3__116__tree_node_baseIPvE15__parent_unsafeB8ne180100Ev, symObjAddr: 0xFDB0, symBinAddr: 0x100011C70, symSize: 0x18 }
  - { offset: 0x24374, size: 0x8, addend: 0x0, symName: __ZNSt3__116__tree_node_baseIPvE12__set_parentB8ne180100EPS2_, symObjAddr: 0xFF98, symBinAddr: 0x100011E58, symSize: 0x20 }
  - { offset: 0x243A9, size: 0x8, addend: 0x0, symName: __ZNSt3__117__compressed_pairImNS_4lessIiEEE5firstB8ne180100Ev, symObjAddr: 0xFFB8, symBinAddr: 0x100011E78, symSize: 0x24 }
  - { offset: 0x243CF, size: 0x8, addend: 0x0, symName: __ZNSt3__122__compressed_pair_elemImLi0ELb0EE5__getB8ne180100Ev, symObjAddr: 0xFFDC, symBinAddr: 0x100011E9C, symSize: 0x14 }
  - { offset: 0x243F5, size: 0x8, addend: 0x0, symName: __ZNSt3__117__compressed_pairIPNS_11__tree_nodeIiPvEENS_22__tree_node_destructorINS_9allocatorIS3_EEEEE5firstB8ne180100Ev, symObjAddr: 0xFFF0, symBinAddr: 0x100011EB0, symSize: 0x24 }
  - { offset: 0x2441B, size: 0x8, addend: 0x0, symName: __ZNSt3__122__compressed_pair_elemIPNS_11__tree_nodeIiPvEELi0ELb0EE5__getB8ne180100Ev, symObjAddr: 0x10014, symBinAddr: 0x100011ED4, symSize: 0x14 }
  - { offset: 0x24441, size: 0x8, addend: 0x0, symName: __ZNSt3__110unique_ptrINS_11__tree_nodeIiPvEENS_22__tree_node_destructorINS_9allocatorIS3_EEEEED2B8ne180100Ev, symObjAddr: 0x10028, symBinAddr: 0x100011EE8, symSize: 0x30 }
  - { offset: 0x2446B, size: 0x8, addend: 0x0, symName: __ZNSt3__110unique_ptrINS_11__tree_nodeIiPvEENS_22__tree_node_destructorINS_9allocatorIS3_EEEEE5resetB8ne180100EPS3_, symObjAddr: 0x10058, symBinAddr: 0x100011F18, symSize: 0x78 }
  - { offset: 0x244AF, size: 0x8, addend: 0x0, symName: __ZNSt3__122__tree_node_destructorINS_9allocatorINS_11__tree_nodeIiPvEEEEEclB8ne180100EPS4_, symObjAddr: 0x100D0, symBinAddr: 0x100011F90, symSize: 0x90 }
  - { offset: 0x244E4, size: 0x8, addend: 0x0, symName: __ZNSt3__115__tree_iteratorIiPNS_11__tree_nodeIiPvEElEC2B8ne180100ES4_, symObjAddr: 0x10160, symBinAddr: 0x100012020, symSize: 0x20 }
  - { offset: 0x2451D, size: 0x8, addend: 0x0, symName: __ZNSt3__14pairINS_15__tree_iteratorIiPNS_11__tree_nodeIiPvEElEEbEC2B8ne180100IS6_RbLi0EEEOT_OT0_, symObjAddr: 0x10180, symBinAddr: 0x100012040, symSize: 0x38 }
  - { offset: 0x2457B, size: 0x8, addend: 0x0, symName: __ZNSt3__14pairINS_21__tree_const_iteratorIiPNS_11__tree_nodeIiPvEElEEbEC2B8ne180100INS_15__tree_iteratorIiS5_lEEbLi0EEEONS0_IT_T0_EE, symObjAddr: 0x101B8, symBinAddr: 0x100012078, symSize: 0x50 }
  - { offset: 0x245CB, size: 0x8, addend: 0x0, symName: __ZNSt3__121__tree_const_iteratorIiPNS_11__tree_nodeIiPvEElEC1B8ne180100ENS_15__tree_iteratorIiS4_lEE, symObjAddr: 0x10208, symBinAddr: 0x1000120C8, symSize: 0x34 }
  - { offset: 0x24604, size: 0x8, addend: 0x0, symName: __ZNSt3__121__tree_const_iteratorIiPNS_11__tree_nodeIiPvEElEC2B8ne180100ENS_15__tree_iteratorIiS4_lEE, symObjAddr: 0x1023C, symBinAddr: 0x1000120FC, symSize: 0x20 }
  - { offset: 0x2463D, size: 0x8, addend: 0x0, symName: __ZNSt3__121__tree_const_iteratorIiPNS_11__tree_nodeIiPvEElEC2B8ne180100Ev, symObjAddr: 0x1025C, symBinAddr: 0x10001211C, symSize: 0x18 }
  - { offset: 0x24667, size: 0x8, addend: 0x0, symName: __ZNSt3__16__treeIiNS_4lessIiEENS_9allocatorIiEEE5clearEv, symObjAddr: 0x10274, symBinAddr: 0x100012134, symSize: 0x74 }
  - { offset: 0x2468F, size: 0x8, addend: 0x0, symName: __ZNSt3__16__treeIiNS_4lessIiEENS_9allocatorIiEEE5beginB8ne180100Ev, symObjAddr: 0x102E8, symBinAddr: 0x1000121A8, symSize: 0x34 }
  - { offset: 0x246B5, size: 0x8, addend: 0x0, symName: __ZNSt3__115__tree_iteratorIiPNS_11__tree_nodeIiPvEElEC1B8ne180100EPNS_15__tree_end_nodeIPNS_16__tree_node_baseIS2_EEEE, symObjAddr: 0x1031C, symBinAddr: 0x1000121DC, symSize: 0x34 }
  - { offset: 0x246EE, size: 0x8, addend: 0x0, symName: __ZNSt3__115__tree_iteratorIiPNS_11__tree_nodeIiPvEElEC2B8ne180100EPNS_15__tree_end_nodeIPNS_16__tree_node_baseIS2_EEEE, symObjAddr: 0x10350, symBinAddr: 0x100012210, symSize: 0x20 }
  - { offset: 0x24727, size: 0x8, addend: 0x0, symName: __ZNSt3__16__treeIiNS_4lessIiEENS_9allocatorIiEEE3endB8ne180100Ev, symObjAddr: 0x10370, symBinAddr: 0x100012230, symSize: 0x34 }
  - { offset: 0x2474D, size: 0x8, addend: 0x0, symName: __ZNKSt3__13setIiNS_4lessIiEENS_9allocatorIiEEE4cendB8ne180100Ev, symObjAddr: 0x103A4, symBinAddr: 0x100012264, symSize: 0x2C }
  - { offset: 0x24773, size: 0x8, addend: 0x0, symName: __ZNSt3__16__treeIiNS_4lessIiEENS_9allocatorIiEEE15__insert_uniqueB8ne180100ENS_21__tree_const_iteratorIiPNS_11__tree_nodeIiPvEElEERKi, symObjAddr: 0x103D0, symBinAddr: 0x100012290, symSize: 0x64 }
  - { offset: 0x247B7, size: 0x8, addend: 0x0, symName: __ZNSt3__121__tree_const_iteratorIiPNS_11__tree_nodeIiPvEElEppB8ne180100Ev, symObjAddr: 0x10434, symBinAddr: 0x1000122F4, symSize: 0x38 }
  - { offset: 0x247DD, size: 0x8, addend: 0x0, symName: __ZNKSt3__13setIiNS_4lessIiEENS_9allocatorIiEEE3endB8ne180100Ev, symObjAddr: 0x1046C, symBinAddr: 0x10001232C, symSize: 0x2C }
  - { offset: 0x24803, size: 0x8, addend: 0x0, symName: __ZNKSt3__16__treeIiNS_4lessIiEENS_9allocatorIiEEE3endB8ne180100Ev, symObjAddr: 0x10498, symBinAddr: 0x100012358, symSize: 0x34 }
  - { offset: 0x24829, size: 0x8, addend: 0x0, symName: __ZNSt3__121__tree_const_iteratorIiPNS_11__tree_nodeIiPvEElEC1B8ne180100EPNS_15__tree_end_nodeIPNS_16__tree_node_baseIS2_EEEE, symObjAddr: 0x104CC, symBinAddr: 0x10001238C, symSize: 0x34 }
  - { offset: 0x24862, size: 0x8, addend: 0x0, symName: __ZNSt3__121__tree_const_iteratorIiPNS_11__tree_nodeIiPvEElEC2B8ne180100EPNS_15__tree_end_nodeIPNS_16__tree_node_baseIS2_EEEE, symObjAddr: 0x10500, symBinAddr: 0x1000123C0, symSize: 0x20 }
  - { offset: 0x2489B, size: 0x8, addend: 0x0, symName: __ZNSt3__16__treeIiNS_4lessIiEENS_9allocatorIiEEE30__emplace_hint_unique_key_argsIiJRKiEEENS_4pairINS_15__tree_iteratorIiPNS_11__tree_nodeIiPvEElEEbEENS_21__tree_const_iteratorIiSE_lEERKT_DpOT0_, symObjAddr: 0x10520, symBinAddr: 0x1000123E0, symSize: 0x104 }
  - { offset: 0x24967, size: 0x8, addend: 0x0, symName: __ZNSt3__16__treeIiNS_4lessIiEENS_9allocatorIiEEE12__find_equalIiEERPNS_16__tree_node_baseIPvEENS_21__tree_const_iteratorIiPNS_11__tree_nodeIiS8_EElEERPNS_15__tree_end_nodeISA_EESB_RKT_, symObjAddr: 0x10624, symBinAddr: 0x1000124E4, symSize: 0x304 }
  - { offset: 0x24A12, size: 0x8, addend: 0x0, symName: __ZNSt3__121__tree_const_iteratorIiPNS_11__tree_nodeIiPvEElEmmB8ne180100Ev, symObjAddr: 0x10958, symBinAddr: 0x100012818, symSize: 0x38 }
  - { offset: 0x24A38, size: 0x8, addend: 0x0, symName: __ZNKSt3__121__tree_const_iteratorIiPNS_11__tree_nodeIiPvEElE8__get_npB8ne180100Ev, symObjAddr: 0x109CC, symBinAddr: 0x10001288C, symSize: 0x18 }
  - { offset: 0x24A5E, size: 0x8, addend: 0x0, symName: __ZNKSt3__16__treeIiNS_4lessIiEENS_9allocatorIiEEE4sizeB8ne180100Ev, symObjAddr: 0x10C5C, symBinAddr: 0x100012B1C, symSize: 0x28 }
  - { offset: 0x24A84, size: 0x8, addend: 0x0, symName: __ZNKSt3__117__compressed_pairImNS_4lessIiEEE5firstB8ne180100Ev, symObjAddr: 0x10C84, symBinAddr: 0x100012B44, symSize: 0x24 }
  - { offset: 0x24AAA, size: 0x8, addend: 0x0, symName: __ZNKSt3__122__compressed_pair_elemImLi0ELb0EE5__getB8ne180100Ev, symObjAddr: 0x10CA8, symBinAddr: 0x100012B68, symSize: 0x14 }
  - { offset: 0x24AD0, size: 0x8, addend: 0x0, symName: __ZNSt3__16vectorIjNS_9allocatorIjEEE11__make_iterB8ne180100EPj, symObjAddr: 0x10CBC, symBinAddr: 0x100012B7C, symSize: 0x30 }
  - { offset: 0x24B05, size: 0x8, addend: 0x0, symName: __ZNSt3__111__wrap_iterIPjEC1B8ne180100ES1_, symObjAddr: 0x10CEC, symBinAddr: 0x100012BAC, symSize: 0x34 }
  - { offset: 0x24B3D, size: 0x8, addend: 0x0, symName: __ZNSt3__111__wrap_iterIPjEC2B8ne180100ES1_, symObjAddr: 0x10D20, symBinAddr: 0x100012BE0, symSize: 0x20 }
  - { offset: 0x24B75, size: 0x8, addend: 0x0, symName: __ZNSt3__118__unwrap_iter_implINS_21__tree_const_iteratorIiPNS_11__tree_nodeIiPvEElEELb0EE8__rewrapB8ne180100ES6_S6_, symObjAddr: 0x10E60, symBinAddr: 0x100012D20, symSize: 0x20 }
  - { offset: 0x24BAE, size: 0x8, addend: 0x0, symName: __ZNKSt3__110__identityclB8ne180100IRKiEEOT_S5_, symObjAddr: 0x10EAC, symBinAddr: 0x100012D6C, symSize: 0x18 }
  - { offset: 0x24BEB, size: 0x8, addend: 0x0, symName: __ZNSt3__118__unwrap_iter_implINS_21__tree_const_iteratorIiPNS_11__tree_nodeIiPvEElEELb0EE8__unwrapB8ne180100ES6_, symObjAddr: 0x10EC4, symBinAddr: 0x100012D84, symSize: 0x1C }
  - { offset: 0x24C0E, size: 0x8, addend: 0x0, symName: __ZNSt3__16__treeIiNS_4lessIiEENS_9allocatorIiEEE14__erase_uniqueIiEEmRKT_, symObjAddr: 0x10EE0, symBinAddr: 0x100012DA0, symSize: 0xA0 }
  - { offset: 0x24C5D, size: 0x8, addend: 0x0, symName: __ZNSt3__16__treeIiNS_4lessIiEENS_9allocatorIiEEE4findIiEENS_15__tree_iteratorIiPNS_11__tree_nodeIiPvEElEERKT_, symObjAddr: 0x10F80, symBinAddr: 0x100012E40, symSize: 0xF8 }
  - { offset: 0x24CAC, size: 0x8, addend: 0x0, symName: __ZNSt3__16__treeIiNS_4lessIiEENS_9allocatorIiEEE5eraseENS_21__tree_const_iteratorIiPNS_11__tree_nodeIiPvEElEE, symObjAddr: 0x110A8, symBinAddr: 0x100012F68, symSize: 0x98 }
  - { offset: 0x24D10, size: 0x8, addend: 0x0, symName: __ZNSt3__16__treeIiNS_4lessIiEENS_9allocatorIiEEE13__lower_boundIiEENS_15__tree_iteratorIiPNS_11__tree_nodeIiPvEElEERKT_SB_PNS_15__tree_end_nodeIPNS_16__tree_node_baseIS9_EEEE, symObjAddr: 0x11140, symBinAddr: 0x100013000, symSize: 0xA4 }
  - { offset: 0x24D6E, size: 0x8, addend: 0x0, symName: __ZNKSt3__115__tree_iteratorIiPNS_11__tree_nodeIiPvEElEdeB8ne180100Ev, symObjAddr: 0x11218, symBinAddr: 0x1000130D8, symSize: 0x28 }
  - { offset: 0x24D94, size: 0x8, addend: 0x0, symName: __ZNKSt3__115__tree_iteratorIiPNS_11__tree_nodeIiPvEElE8__get_npB8ne180100Ev, symObjAddr: 0x11240, symBinAddr: 0x100013100, symSize: 0x18 }
  - { offset: 0x24DBA, size: 0x8, addend: 0x0, symName: __ZNSt3__16__treeIiNS_4lessIiEENS_9allocatorIiEEE21__remove_node_pointerEPNS_11__tree_nodeIiPvEE, symObjAddr: 0x11258, symBinAddr: 0x100013118, symSize: 0xB4 }
  - { offset: 0x24E00, size: 0x8, addend: 0x0, symName: __ZNSt3__115__tree_iteratorIiPNS_11__tree_nodeIiPvEElEppB8ne180100Ev, symObjAddr: 0x1130C, symBinAddr: 0x1000131CC, symSize: 0x38 }
  - { offset: 0x24E26, size: 0x8, addend: 0x0, symName: __ZNSt3__16vectorINS0_IiNS_9allocatorIiEEEENS1_IS3_EEEC2B8ne180100Ev, symObjAddr: 0x11AB4, symBinAddr: 0x100013974, symSize: 0x4C }
  - { offset: 0x24E50, size: 0x8, addend: 0x0, symName: __ZNSt3__117__compressed_pairIPNS_6vectorIiNS_9allocatorIiEEEENS2_IS4_EEEC1B8ne180100IDnNS_18__default_init_tagEEEOT_OT0_, symObjAddr: 0x11B00, symBinAddr: 0x1000139C0, symSize: 0x3C }
  - { offset: 0x24EA8, size: 0x8, addend: 0x0, symName: __ZNSt3__117__compressed_pairIPNS_6vectorIiNS_9allocatorIiEEEENS2_IS4_EEEC2B8ne180100IDnNS_18__default_init_tagEEEOT_OT0_, symObjAddr: 0x11B3C, symBinAddr: 0x1000139FC, symSize: 0x40 }
  - { offset: 0x24F00, size: 0x8, addend: 0x0, symName: __ZNSt3__122__compressed_pair_elemIPNS_6vectorIiNS_9allocatorIiEEEELi0ELb0EEC2B8ne180100IDnvEEOT_, symObjAddr: 0x11B7C, symBinAddr: 0x100013A3C, symSize: 0x1C }
  - { offset: 0x24F42, size: 0x8, addend: 0x0, symName: __ZNSt3__122__compressed_pair_elemINS_9allocatorINS_6vectorIiNS1_IiEEEEEELi1ELb1EEC2B8ne180100ENS_18__default_init_tagE, symObjAddr: 0x11B98, symBinAddr: 0x100013A58, symSize: 0x2C }
  - { offset: 0x24F77, size: 0x8, addend: 0x0, symName: __ZNSt3__19allocatorINS_6vectorIiNS0_IiEEEEEC2B8ne180100Ev, symObjAddr: 0x11BC4, symBinAddr: 0x100013A84, symSize: 0x2C }
  - { offset: 0x24FA1, size: 0x8, addend: 0x0, symName: __ZNSt3__116__non_trivial_ifILb1ENS_9allocatorINS_6vectorIiNS1_IiEEEEEEEC2B8ne180100Ev, symObjAddr: 0x11BF0, symBinAddr: 0x100013AB0, symSize: 0x14 }
  - { offset: 0x24FCB, size: 0x8, addend: 0x0, symName: __ZNSt3__16vectorINS0_IiNS_9allocatorIiEEEENS1_IS3_EEED2B8ne180100Ev, symObjAddr: 0x11C04, symBinAddr: 0x100013AC4, symSize: 0x44 }
  - { offset: 0x24FF5, size: 0x8, addend: 0x0, symName: __ZNSt3__16vectorINS0_IiNS_9allocatorIiEEEENS1_IS3_EEE16__destroy_vectorC1B8ne180100ERS5_, symObjAddr: 0x11C48, symBinAddr: 0x100013B08, symSize: 0x34 }
  - { offset: 0x2502E, size: 0x8, addend: 0x0, symName: __ZNSt3__16vectorINS0_IiNS_9allocatorIiEEEENS1_IS3_EEE16__destroy_vectorclB8ne180100Ev, symObjAddr: 0x11C7C, symBinAddr: 0x100013B3C, symSize: 0x90 }
  - { offset: 0x25054, size: 0x8, addend: 0x0, symName: __ZNSt3__16vectorINS0_IiNS_9allocatorIiEEEENS1_IS3_EEE16__destroy_vectorC2B8ne180100ERS5_, symObjAddr: 0x11D0C, symBinAddr: 0x100013BCC, symSize: 0x20 }
  - { offset: 0x2508D, size: 0x8, addend: 0x0, symName: __ZNSt3__16vectorINS0_IiNS_9allocatorIiEEEENS1_IS3_EEE7__clearB8ne180100Ev, symObjAddr: 0x11D2C, symBinAddr: 0x100013BEC, symSize: 0x28 }
  - { offset: 0x250B3, size: 0x8, addend: 0x0, symName: __ZNKSt3__16vectorINS0_IiNS_9allocatorIiEEEENS1_IS3_EEE17__annotate_deleteB8ne180100Ev, symObjAddr: 0x11D54, symBinAddr: 0x100013C14, symSize: 0x10 }
  - { offset: 0x250D9, size: 0x8, addend: 0x0, symName: __ZNSt3__116allocator_traitsINS_9allocatorINS_6vectorIiNS1_IiEEEEEEE10deallocateB8ne180100ERS5_PS4_m, symObjAddr: 0x11D64, symBinAddr: 0x100013C24, symSize: 0x34 }
  - { offset: 0x2511B, size: 0x8, addend: 0x0, symName: __ZNSt3__16vectorINS0_IiNS_9allocatorIiEEEENS1_IS3_EEE7__allocB8ne180100Ev, symObjAddr: 0x11D98, symBinAddr: 0x100013C58, symSize: 0x28 }
  - { offset: 0x25141, size: 0x8, addend: 0x0, symName: __ZNKSt3__16vectorINS0_IiNS_9allocatorIiEEEENS1_IS3_EEE8capacityB8ne180100Ev, symObjAddr: 0x11DC0, symBinAddr: 0x100013C80, symSize: 0x40 }
  - { offset: 0x25167, size: 0x8, addend: 0x0, symName: __ZNSt3__16vectorINS0_IiNS_9allocatorIiEEEENS1_IS3_EEE22__base_destruct_at_endB8ne180100EPS3_, symObjAddr: 0x11E00, symBinAddr: 0x100013CC0, symSize: 0x8C }
  - { offset: 0x251AB, size: 0x8, addend: 0x0, symName: __ZNSt3__116allocator_traitsINS_9allocatorINS_6vectorIiNS1_IiEEEEEEE7destroyB8ne180100IS4_vEEvRS5_PT_, symObjAddr: 0x11E8C, symBinAddr: 0x100013D4C, symSize: 0x2C }
  - { offset: 0x251E8, size: 0x8, addend: 0x0, symName: __ZNSt3__19allocatorINS_6vectorIiNS0_IiEEEEE7destroyB8ne180100EPS3_, symObjAddr: 0x11ECC, symBinAddr: 0x100013D8C, symSize: 0x28 }
  - { offset: 0x2521C, size: 0x8, addend: 0x0, symName: __ZNSt3__19allocatorINS_6vectorIiNS0_IiEEEEE10deallocateB8ne180100EPS3_m, symObjAddr: 0x11EF4, symBinAddr: 0x100013DB4, symSize: 0x44 }
  - { offset: 0x2525E, size: 0x8, addend: 0x0, symName: __ZNSt3__117__compressed_pairIPNS_6vectorIiNS_9allocatorIiEEEENS2_IS4_EEE6secondB8ne180100Ev, symObjAddr: 0x11F38, symBinAddr: 0x100013DF8, symSize: 0x24 }
  - { offset: 0x25284, size: 0x8, addend: 0x0, symName: __ZNSt3__122__compressed_pair_elemINS_9allocatorINS_6vectorIiNS1_IiEEEEEELi1ELb1EE5__getB8ne180100Ev, symObjAddr: 0x11F5C, symBinAddr: 0x100013E1C, symSize: 0x14 }
  - { offset: 0x252AA, size: 0x8, addend: 0x0, symName: __ZNKSt3__16vectorINS0_IiNS_9allocatorIiEEEENS1_IS3_EEE9__end_capB8ne180100Ev, symObjAddr: 0x11F70, symBinAddr: 0x100013E30, symSize: 0x28 }
  - { offset: 0x252D0, size: 0x8, addend: 0x0, symName: __ZNKSt3__117__compressed_pairIPNS_6vectorIiNS_9allocatorIiEEEENS2_IS4_EEE5firstB8ne180100Ev, symObjAddr: 0x11F98, symBinAddr: 0x100013E58, symSize: 0x24 }
  - { offset: 0x252F6, size: 0x8, addend: 0x0, symName: __ZNKSt3__122__compressed_pair_elemIPNS_6vectorIiNS_9allocatorIiEEEELi0ELb0EE5__getB8ne180100Ev, symObjAddr: 0x11FBC, symBinAddr: 0x100013E7C, symSize: 0x14 }
  - { offset: 0x2531C, size: 0x8, addend: 0x0, symName: __ZNSt3__16vectorINS0_IiNS_9allocatorIiEEEENS1_IS3_EEE9__end_capB8ne180100Ev, symObjAddr: 0x11FD0, symBinAddr: 0x100013E90, symSize: 0x28 }
  - { offset: 0x25342, size: 0x8, addend: 0x0, symName: __ZNSt3__16vectorINS0_IiNS_9allocatorIiEEEENS1_IS3_EEE22__construct_one_at_endB8ne180100IJS3_EEEvDpOT_, symObjAddr: 0x11FF8, symBinAddr: 0x100013EB8, symSize: 0x90 }
  - { offset: 0x25391, size: 0x8, addend: 0x0, symName: __ZNSt3__16vectorINS0_IiNS_9allocatorIiEEEENS1_IS3_EEE21__push_back_slow_pathIS3_EEPS3_OT_, symObjAddr: 0x12088, symBinAddr: 0x100013F48, symSize: 0xE8 }
  - { offset: 0x253EF, size: 0x8, addend: 0x0, symName: __ZNSt3__117__compressed_pairIPNS_6vectorIiNS_9allocatorIiEEEENS2_IS4_EEE5firstB8ne180100Ev, symObjAddr: 0x12170, symBinAddr: 0x100014030, symSize: 0x24 }
  - { offset: 0x25415, size: 0x8, addend: 0x0, symName: __ZNSt3__122__compressed_pair_elemIPNS_6vectorIiNS_9allocatorIiEEEELi0ELb0EE5__getB8ne180100Ev, symObjAddr: 0x12194, symBinAddr: 0x100014054, symSize: 0x14 }
  - { offset: 0x25457, size: 0x8, addend: 0x0, symName: __ZNSt3__16vectorINS0_IiNS_9allocatorIiEEEENS1_IS3_EEE21_ConstructTransactionC1B8ne180100ERS5_m, symObjAddr: 0x121A8, symBinAddr: 0x100014068, symSize: 0x3C }
  - { offset: 0x2549F, size: 0x8, addend: 0x0, symName: __ZNSt3__116allocator_traitsINS_9allocatorINS_6vectorIiNS1_IiEEEEEEE9constructB8ne180100IS4_JS4_EvEEvRS5_PT_DpOT0_, symObjAddr: 0x121E4, symBinAddr: 0x1000140A4, symSize: 0x34 }
  - { offset: 0x254F6, size: 0x8, addend: 0x0, symName: __ZNSt3__16vectorINS0_IiNS_9allocatorIiEEEENS1_IS3_EEE21_ConstructTransactionD1B8ne180100Ev, symObjAddr: 0x12218, symBinAddr: 0x1000140D8, symSize: 0x2C }
  - { offset: 0x25520, size: 0x8, addend: 0x0, symName: __ZNSt3__16vectorINS0_IiNS_9allocatorIiEEEENS1_IS3_EEE21_ConstructTransactionC2B8ne180100ERS5_m, symObjAddr: 0x12244, symBinAddr: 0x100014104, symSize: 0x4C }
  - { offset: 0x25568, size: 0x8, addend: 0x0, symName: __ZNSt3__19allocatorINS_6vectorIiNS0_IiEEEEE9constructB8ne180100IS3_JS3_EEEvPT_DpOT0_, symObjAddr: 0x12290, symBinAddr: 0x100014150, symSize: 0x30 }
  - { offset: 0x255BE, size: 0x8, addend: 0x0, symName: __ZNSt3__16vectorIiNS_9allocatorIiEEEC1B8ne180100EOS3_, symObjAddr: 0x122C0, symBinAddr: 0x100014180, symSize: 0x34 }
  - { offset: 0x255F9, size: 0x8, addend: 0x0, symName: __ZNSt3__16vectorIiNS_9allocatorIiEEEC2B8ne180100EOS3_, symObjAddr: 0x122F4, symBinAddr: 0x1000141B4, symSize: 0xC4 }
  - { offset: 0x2563A, size: 0x8, addend: 0x0, symName: __ZNSt3__117__compressed_pairIPiNS_9allocatorIiEEEC1B8ne180100IDnS3_EEOT_OT0_, symObjAddr: 0x123B8, symBinAddr: 0x100014278, symSize: 0x3C }
  - { offset: 0x25692, size: 0x8, addend: 0x0, symName: __ZNSt3__117__compressed_pairIPiNS_9allocatorIiEEEC2B8ne180100IDnS3_EEOT_OT0_, symObjAddr: 0x123F4, symBinAddr: 0x1000142B4, symSize: 0x44 }
  - { offset: 0x256EA, size: 0x8, addend: 0x0, symName: __ZNSt3__122__compressed_pair_elemINS_9allocatorIiEELi1ELb1EEC2B8ne180100IS2_vEEOT_, symObjAddr: 0x12438, symBinAddr: 0x1000142F8, symSize: 0x18 }
  - { offset: 0x2572C, size: 0x8, addend: 0x0, symName: __ZNSt3__16vectorINS0_IiNS_9allocatorIiEEEENS1_IS3_EEE21_ConstructTransactionD2B8ne180100Ev, symObjAddr: 0x12450, symBinAddr: 0x100014310, symSize: 0x20 }
  - { offset: 0x25756, size: 0x8, addend: 0x0, symName: __ZNKSt3__16vectorINS0_IiNS_9allocatorIiEEEENS1_IS3_EEE11__recommendB8ne180100Em, symObjAddr: 0x12470, symBinAddr: 0x100014330, symSize: 0xB4 }
  - { offset: 0x257AB, size: 0x8, addend: 0x0, symName: __ZNSt3__114__split_bufferINS_6vectorIiNS_9allocatorIiEEEERNS2_IS4_EEEC1EmmS6_, symObjAddr: 0x12524, symBinAddr: 0x1000143E4, symSize: 0x44 }
  - { offset: 0x25801, size: 0x8, addend: 0x0, symName: __ZNSt3__114__split_bufferINS_6vectorIiNS_9allocatorIiEEEERNS2_IS4_EEED1Ev, symObjAddr: 0x12678, symBinAddr: 0x100014538, symSize: 0x2C }
  - { offset: 0x2582D, size: 0x8, addend: 0x0, symName: __ZNKSt3__16vectorINS0_IiNS_9allocatorIiEEEENS1_IS3_EEE8max_sizeEv, symObjAddr: 0x126A4, symBinAddr: 0x100014564, symSize: 0x60 }
  - { offset: 0x25855, size: 0x8, addend: 0x0, symName: __ZNKSt3__16vectorINS0_IiNS_9allocatorIiEEEENS1_IS3_EEE20__throw_length_errorB8ne180100Ev, symObjAddr: 0x12704, symBinAddr: 0x1000145C4, symSize: 0x1C }
  - { offset: 0x25886, size: 0x8, addend: 0x0, symName: __ZNSt3__116allocator_traitsINS_9allocatorINS_6vectorIiNS1_IiEEEEEEE8max_sizeB8ne180100IS5_vEEmRKS5_, symObjAddr: 0x12720, symBinAddr: 0x1000145E0, symSize: 0x24 }
  - { offset: 0x258B4, size: 0x8, addend: 0x0, symName: __ZNKSt3__16vectorINS0_IiNS_9allocatorIiEEEENS1_IS3_EEE7__allocB8ne180100Ev, symObjAddr: 0x12744, symBinAddr: 0x100014604, symSize: 0x28 }
  - { offset: 0x258DA, size: 0x8, addend: 0x0, symName: __ZNKSt3__19allocatorINS_6vectorIiNS0_IiEEEEE8max_sizeB8ne180100Ev, symObjAddr: 0x1276C, symBinAddr: 0x10001462C, symSize: 0x18 }
  - { offset: 0x25900, size: 0x8, addend: 0x0, symName: __ZNKSt3__117__compressed_pairIPNS_6vectorIiNS_9allocatorIiEEEENS2_IS4_EEE6secondB8ne180100Ev, symObjAddr: 0x12784, symBinAddr: 0x100014644, symSize: 0x24 }
  - { offset: 0x25926, size: 0x8, addend: 0x0, symName: __ZNKSt3__122__compressed_pair_elemINS_9allocatorINS_6vectorIiNS1_IiEEEEEELi1ELb1EE5__getB8ne180100Ev, symObjAddr: 0x127A8, symBinAddr: 0x100014668, symSize: 0x14 }
  - { offset: 0x2594C, size: 0x8, addend: 0x0, symName: __ZNSt3__114__split_bufferINS_6vectorIiNS_9allocatorIiEEEERNS2_IS4_EEEC2EmmS6_, symObjAddr: 0x127BC, symBinAddr: 0x10001467C, symSize: 0xE0 }
  - { offset: 0x259C0, size: 0x8, addend: 0x0, symName: __ZNSt3__117__compressed_pairIPNS_6vectorIiNS_9allocatorIiEEEERNS2_IS4_EEEC1B8ne180100IDnS7_EEOT_OT0_, symObjAddr: 0x1289C, symBinAddr: 0x10001475C, symSize: 0x3C }
  - { offset: 0x25A18, size: 0x8, addend: 0x0, symName: __ZNSt3__114__split_bufferINS_6vectorIiNS_9allocatorIiEEEERNS2_IS4_EEE7__allocB8ne180100Ev, symObjAddr: 0x12918, symBinAddr: 0x1000147D8, symSize: 0x28 }
  - { offset: 0x25A3E, size: 0x8, addend: 0x0, symName: __ZNSt3__114__split_bufferINS_6vectorIiNS_9allocatorIiEEEERNS2_IS4_EEE9__end_capB8ne180100Ev, symObjAddr: 0x12940, symBinAddr: 0x100014800, symSize: 0x28 }
  - { offset: 0x25A64, size: 0x8, addend: 0x0, symName: __ZNSt3__117__compressed_pairIPNS_6vectorIiNS_9allocatorIiEEEERNS2_IS4_EEEC2B8ne180100IDnS7_EEOT_OT0_, symObjAddr: 0x12968, symBinAddr: 0x100014828, symSize: 0x48 }
  - { offset: 0x25ABC, size: 0x8, addend: 0x0, symName: __ZNSt3__122__compressed_pair_elemIRNS_9allocatorINS_6vectorIiNS1_IiEEEEEELi1ELb0EEC2B8ne180100IS6_vEEOT_, symObjAddr: 0x129B0, symBinAddr: 0x100014870, symSize: 0x20 }
  - { offset: 0x25AFE, size: 0x8, addend: 0x0, symName: __ZNSt3__19allocatorINS_6vectorIiNS0_IiEEEEE8allocateB8ne180100Em, symObjAddr: 0x129D0, symBinAddr: 0x100014890, symSize: 0x5C }
  - { offset: 0x25B32, size: 0x8, addend: 0x0, symName: __ZNSt3__117__compressed_pairIPNS_6vectorIiNS_9allocatorIiEEEERNS2_IS4_EEE6secondB8ne180100Ev, symObjAddr: 0x12A2C, symBinAddr: 0x1000148EC, symSize: 0x28 }
  - { offset: 0x25B58, size: 0x8, addend: 0x0, symName: __ZNSt3__122__compressed_pair_elemIRNS_9allocatorINS_6vectorIiNS1_IiEEEEEELi1ELb0EE5__getB8ne180100Ev, symObjAddr: 0x12A54, symBinAddr: 0x100014914, symSize: 0x18 }
  - { offset: 0x25B7E, size: 0x8, addend: 0x0, symName: __ZNSt3__117__compressed_pairIPNS_6vectorIiNS_9allocatorIiEEEERNS2_IS4_EEE5firstB8ne180100Ev, symObjAddr: 0x12A6C, symBinAddr: 0x10001492C, symSize: 0x24 }
  - { offset: 0x25BA4, size: 0x8, addend: 0x0, symName: __ZNSt3__116reverse_iteratorIPNS_6vectorIiNS_9allocatorIiEEEEEC1B8ne180100ES5_, symObjAddr: 0x12BBC, symBinAddr: 0x100014A7C, symSize: 0x34 }
  - { offset: 0x25BDC, size: 0x8, addend: 0x0, symName: __ZNKSt3__116reverse_iteratorIPNS_6vectorIiNS_9allocatorIiEEEEE4baseB8ne180100Ev, symObjAddr: 0x12BF0, symBinAddr: 0x100014AB0, symSize: 0x18 }
  - { offset: 0x25C02, size: 0x8, addend: 0x0, symName: __ZNKSt3__16vectorINS0_IiNS_9allocatorIiEEEENS1_IS3_EEE14__annotate_newB8ne180100Em, symObjAddr: 0x12C44, symBinAddr: 0x100014B04, symSize: 0x14 }
  - { offset: 0x25C37, size: 0x8, addend: 0x0, symName: __ZNSt3__129_AllocatorDestroyRangeReverseINS_9allocatorINS_6vectorIiNS1_IiEEEEEENS_16reverse_iteratorIPS4_EEEC1B8ne180100ERS5_RS8_SB_, symObjAddr: 0x12CA4, symBinAddr: 0x100014B64, symSize: 0x44 }
  - { offset: 0x25C8E, size: 0x8, addend: 0x0, symName: __ZNKSt3__116reverse_iteratorIPNS_6vectorIiNS_9allocatorIiEEEEEdeB8ne180100Ev, symObjAddr: 0x12D54, symBinAddr: 0x100014C14, symSize: 0x28 }
  - { offset: 0x25CC2, size: 0x8, addend: 0x0, symName: __ZNSt3__116reverse_iteratorIPNS_6vectorIiNS_9allocatorIiEEEEEppB8ne180100Ev, symObjAddr: 0x12D7C, symBinAddr: 0x100014C3C, symSize: 0x20 }
  - { offset: 0x25CE8, size: 0x8, addend: 0x0, symName: __ZNSt3__128__exception_guard_exceptionsINS_29_AllocatorDestroyRangeReverseINS_9allocatorINS_6vectorIiNS2_IiEEEEEENS_16reverse_iteratorIPS5_EEEEE10__completeB8ne180100Ev, symObjAddr: 0x12D9C, symBinAddr: 0x100014C5C, symSize: 0x1C }
  - { offset: 0x25D0E, size: 0x8, addend: 0x0, symName: __ZNSt3__128__exception_guard_exceptionsINS_29_AllocatorDestroyRangeReverseINS_9allocatorINS_6vectorIiNS2_IiEEEEEENS_16reverse_iteratorIPS5_EEEEED1B8ne180100Ev, symObjAddr: 0x12DB8, symBinAddr: 0x100014C78, symSize: 0x2C }
  - { offset: 0x25D38, size: 0x8, addend: 0x0, symName: __ZNSt3__128__exception_guard_exceptionsINS_29_AllocatorDestroyRangeReverseINS_9allocatorINS_6vectorIiNS2_IiEEEEEENS_16reverse_iteratorIPS5_EEEEEC1B8ne180100ESA_, symObjAddr: 0x12DE4, symBinAddr: 0x100014CA4, symSize: 0x34 }
  - { offset: 0x25D71, size: 0x8, addend: 0x0, symName: __ZNSt3__128__exception_guard_exceptionsINS_29_AllocatorDestroyRangeReverseINS_9allocatorINS_6vectorIiNS2_IiEEEEEENS_16reverse_iteratorIPS5_EEEEEC2B8ne180100ESA_, symObjAddr: 0x12E18, symBinAddr: 0x100014CD8, symSize: 0x30 }
  - { offset: 0x25DAA, size: 0x8, addend: 0x0, symName: __ZNSt3__129_AllocatorDestroyRangeReverseINS_9allocatorINS_6vectorIiNS1_IiEEEEEENS_16reverse_iteratorIPS4_EEEC2B8ne180100ERS5_RS8_SB_, symObjAddr: 0x12E48, symBinAddr: 0x100014D08, symSize: 0x38 }
  - { offset: 0x25E07, size: 0x8, addend: 0x0, symName: __ZNSt3__119__to_address_helperINS_16reverse_iteratorIPNS_6vectorIiNS_9allocatorIiEEEEEEvE6__callB8ne180100ERKS7_, symObjAddr: 0x12E80, symBinAddr: 0x100014D40, symSize: 0x38 }
  - { offset: 0x25E2A, size: 0x8, addend: 0x0, symName: __ZNKSt3__116reverse_iteratorIPNS_6vectorIiNS_9allocatorIiEEEEEptB8ne180100Ev, symObjAddr: 0x12EB8, symBinAddr: 0x100014D78, symSize: 0x24 }
  - { offset: 0x25E50, size: 0x8, addend: 0x0, symName: __ZNSt3__128__exception_guard_exceptionsINS_29_AllocatorDestroyRangeReverseINS_9allocatorINS_6vectorIiNS2_IiEEEEEENS_16reverse_iteratorIPS5_EEEEED2B8ne180100Ev, symObjAddr: 0x12EDC, symBinAddr: 0x100014D9C, symSize: 0x50 }
  - { offset: 0x25E7A, size: 0x8, addend: 0x0, symName: __ZNKSt3__129_AllocatorDestroyRangeReverseINS_9allocatorINS_6vectorIiNS1_IiEEEEEENS_16reverse_iteratorIPS4_EEEclB8ne180100Ev, symObjAddr: 0x12F2C, symBinAddr: 0x100014DEC, symSize: 0xB4 }
  - { offset: 0x25EA1, size: 0x8, addend: 0x0, symName: __ZNSt3__116reverse_iteratorINS0_IPNS_6vectorIiNS_9allocatorIiEEEEEEEC1B8ne180100ES6_, symObjAddr: 0x13050, symBinAddr: 0x100014F10, symSize: 0x3C }
  - { offset: 0x25ED9, size: 0x8, addend: 0x0, symName: __ZNSt3__116reverse_iteratorINS0_IPNS_6vectorIiNS_9allocatorIiEEEEEEEppB8ne180100Ev, symObjAddr: 0x13110, symBinAddr: 0x100014FD0, symSize: 0x30 }
  - { offset: 0x25EFF, size: 0x8, addend: 0x0, symName: __ZNKSt3__116reverse_iteratorINS0_IPNS_6vectorIiNS_9allocatorIiEEEEEEE4baseB8ne180100Ev, symObjAddr: 0x13140, symBinAddr: 0x100015000, symSize: 0x24 }
  - { offset: 0x25F2B, size: 0x8, addend: 0x0, symName: __ZNSt3__119__to_address_helperINS_16reverse_iteratorINS1_IPNS_6vectorIiNS_9allocatorIiEEEEEEEEvE6__callB8ne180100ERKS8_, symObjAddr: 0x13164, symBinAddr: 0x100015024, symSize: 0x38 }
  - { offset: 0x25F4E, size: 0x8, addend: 0x0, symName: __ZNKSt3__116reverse_iteratorINS0_IPNS_6vectorIiNS_9allocatorIiEEEEEEEptB8ne180100Ev, symObjAddr: 0x1319C, symBinAddr: 0x10001505C, symSize: 0x24 }
  - { offset: 0x25F74, size: 0x8, addend: 0x0, symName: __ZNKSt3__116reverse_iteratorINS0_IPNS_6vectorIiNS_9allocatorIiEEEEEEEdeB8ne180100Ev, symObjAddr: 0x131C0, symBinAddr: 0x100015080, symSize: 0x34 }
  - { offset: 0x25FA8, size: 0x8, addend: 0x0, symName: __ZNSt3__116reverse_iteratorIPNS_6vectorIiNS_9allocatorIiEEEEEmmB8ne180100Ev, symObjAddr: 0x131F4, symBinAddr: 0x1000150B4, symSize: 0x20 }
  - { offset: 0x25FCE, size: 0x8, addend: 0x0, symName: __ZNSt3__116reverse_iteratorINS0_IPNS_6vectorIiNS_9allocatorIiEEEEEEEC2B8ne180100ES6_, symObjAddr: 0x13214, symBinAddr: 0x1000150D4, symSize: 0x2C }
  - { offset: 0x26006, size: 0x8, addend: 0x0, symName: __ZNSt3__116reverse_iteratorIPNS_6vectorIiNS_9allocatorIiEEEEEC2B8ne180100ES5_, symObjAddr: 0x13240, symBinAddr: 0x100015100, symSize: 0x28 }
  - { offset: 0x2603E, size: 0x8, addend: 0x0, symName: __ZNSt3__114__split_bufferINS_6vectorIiNS_9allocatorIiEEEERNS2_IS4_EEED2Ev, symObjAddr: 0x13268, symBinAddr: 0x100015128, symSize: 0x8C }
  - { offset: 0x2606A, size: 0x8, addend: 0x0, symName: __ZNSt3__114__split_bufferINS_6vectorIiNS_9allocatorIiEEEERNS2_IS4_EEE5clearB8ne180100Ev, symObjAddr: 0x132F4, symBinAddr: 0x1000151B4, symSize: 0x28 }
  - { offset: 0x26090, size: 0x8, addend: 0x0, symName: __ZNKSt3__114__split_bufferINS_6vectorIiNS_9allocatorIiEEEERNS2_IS4_EEE8capacityB8ne180100Ev, symObjAddr: 0x1331C, symBinAddr: 0x1000151DC, symSize: 0x40 }
  - { offset: 0x260B6, size: 0x8, addend: 0x0, symName: __ZNSt3__114__split_bufferINS_6vectorIiNS_9allocatorIiEEEERNS2_IS4_EEE17__destruct_at_endB8ne180100EPS4_, symObjAddr: 0x1335C, symBinAddr: 0x10001521C, symSize: 0x2C }
  - { offset: 0x260EA, size: 0x8, addend: 0x0, symName: __ZNSt3__114__split_bufferINS_6vectorIiNS_9allocatorIiEEEERNS2_IS4_EEE17__destruct_at_endB8ne180100EPS4_NS_17integral_constantIbLb0EEE, symObjAddr: 0x13388, symBinAddr: 0x100015248, symSize: 0x80 }
  - { offset: 0x2612B, size: 0x8, addend: 0x0, symName: __ZNKSt3__114__split_bufferINS_6vectorIiNS_9allocatorIiEEEERNS2_IS4_EEE9__end_capB8ne180100Ev, symObjAddr: 0x13408, symBinAddr: 0x1000152C8, symSize: 0x28 }
  - { offset: 0x26151, size: 0x8, addend: 0x0, symName: __ZNKSt3__117__compressed_pairIPNS_6vectorIiNS_9allocatorIiEEEERNS2_IS4_EEE5firstB8ne180100Ev, symObjAddr: 0x13430, symBinAddr: 0x1000152F0, symSize: 0x24 }
  - { offset: 0x26177, size: 0x8, addend: 0x0, symName: __ZNSt3__16vectorIiNS_9allocatorIiEEE22__construct_one_at_endB8ne180100IJRKiEEEvDpOT_, symObjAddr: 0x13454, symBinAddr: 0x100015314, symSize: 0x90 }
  - { offset: 0x261C6, size: 0x8, addend: 0x0, symName: __ZNSt3__16vectorIiNS_9allocatorIiEEE21__push_back_slow_pathIRKiEEPiOT_, symObjAddr: 0x134E4, symBinAddr: 0x1000153A4, symSize: 0xE8 }
  - { offset: 0x26224, size: 0x8, addend: 0x0, symName: __ZNSt3__116allocator_traitsINS_9allocatorIiEEE9constructB8ne180100IiJRKiEvEEvRS2_PT_DpOT0_, symObjAddr: 0x135CC, symBinAddr: 0x10001548C, symSize: 0x34 }
  - { offset: 0x2627B, size: 0x8, addend: 0x0, symName: __ZNSt3__19allocatorIiE9constructB8ne180100IiJRKiEEEvPT_DpOT0_, symObjAddr: 0x13600, symBinAddr: 0x1000154C0, symSize: 0x28 }
  - { offset: 0x262D1, size: 0x8, addend: 0x0, symName: __ZNSt3__16vectorIiNS_9allocatorIiEEEC2ERKS3_, symObjAddr: 0x13628, symBinAddr: 0x1000154E8, symSize: 0x94 }
  - { offset: 0x2630C, size: 0x8, addend: 0x0, symName: __ZNSt3__116allocator_traitsINS_9allocatorIiEEE37select_on_container_copy_constructionB8ne180100IS2_vvEES2_RKS2_, symObjAddr: 0x136BC, symBinAddr: 0x10001557C, symSize: 0x10 }
  - { offset: 0x2633B, size: 0x8, addend: 0x0, symName: __ZNSt3__16vectorIiNS_9allocatorIiEEE16__init_with_sizeB8ne180100IPiS5_EEvT_T0_m, symObjAddr: 0x136CC, symBinAddr: 0x10001558C, symSize: 0xB8 }
  - { offset: 0x263AF, size: 0x8, addend: 0x0, symName: __ZNSt3__16vectorIiNS_9allocatorIiEEE11__vallocateB8ne180100Em, symObjAddr: 0x137C4, symBinAddr: 0x100015684, symSize: 0xAC }
  - { offset: 0x263F3, size: 0x8, addend: 0x0, symName: __ZNSt3__16vectorIiNS_9allocatorIiEEE18__construct_at_endIPiS5_EEvT_T0_m, symObjAddr: 0x13870, symBinAddr: 0x100015730, symSize: 0x8C }
  - { offset: 0x26469, size: 0x8, addend: 0x0, symName: __ZNSt3__128__exception_guard_exceptionsINS_6vectorIiNS_9allocatorIiEEE16__destroy_vectorEE10__completeB8ne180100Ev, symObjAddr: 0x138FC, symBinAddr: 0x1000157BC, symSize: 0x1C }
  - { offset: 0x2648F, size: 0x8, addend: 0x0, symName: __ZNSt3__128__exception_guard_exceptionsINS_6vectorIiNS_9allocatorIiEEE16__destroy_vectorEED1B8ne180100Ev, symObjAddr: 0x13918, symBinAddr: 0x1000157D8, symSize: 0x2C }
  - { offset: 0x264B9, size: 0x8, addend: 0x0, symName: __ZNSt3__128__exception_guard_exceptionsINS_6vectorIiNS_9allocatorIiEEE16__destroy_vectorEEC1B8ne180100ES5_, symObjAddr: 0x13944, symBinAddr: 0x100015804, symSize: 0x34 }
  - { offset: 0x264F1, size: 0x8, addend: 0x0, symName: __ZNSt3__128__exception_guard_exceptionsINS_6vectorIiNS_9allocatorIiEEE16__destroy_vectorEEC2B8ne180100ES5_, symObjAddr: 0x13978, symBinAddr: 0x100015838, symSize: 0x24 }
  - { offset: 0x2654C, size: 0x8, addend: 0x0, symName: __ZNSt3__14pairIPiS1_EC1B8ne180100IS1_S1_Li0EEEOT_OT0_, symObjAddr: 0x13B4C, symBinAddr: 0x100015A0C, symSize: 0x3C }
  - { offset: 0x265AA, size: 0x8, addend: 0x0, symName: __ZNSt3__14pairIPiS1_EC2B8ne180100IS1_S1_Li0EEEOT_OT0_, symObjAddr: 0x13B88, symBinAddr: 0x100015A48, symSize: 0x34 }
  - { offset: 0x26608, size: 0x8, addend: 0x0, symName: __ZNKSt3__114__copy_trivialclB8ne180100IiiLi0EEENS_4pairIPT_PT0_EES4_S4_S6_, symObjAddr: 0x13D38, symBinAddr: 0x100015BF8, symSize: 0x48 }
  - { offset: 0x26670, size: 0x8, addend: 0x0, symName: __ZNSt3__14pairIPiS1_EC1B8ne180100IRS1_S1_Li0EEEOT_OT0_, symObjAddr: 0x13EC8, symBinAddr: 0x100015D88, symSize: 0x3C }
  - { offset: 0x266CE, size: 0x8, addend: 0x0, symName: __ZNSt3__14pairIPiS1_EC2B8ne180100IRS1_S1_Li0EEEOT_OT0_, symObjAddr: 0x13F04, symBinAddr: 0x100015DC4, symSize: 0x34 }
  - { offset: 0x2672C, size: 0x8, addend: 0x0, symName: __ZNSt3__118__unwrap_iter_implIPiLb1EE8__unwrapB8ne180100ES1_, symObjAddr: 0x13F38, symBinAddr: 0x100015DF8, symSize: 0x24 }
  - { offset: 0x2674F, size: 0x8, addend: 0x0, symName: __ZNSt3__118__unwrap_iter_implIPiLb1EE8__rewrapB8ne180100ES1_S1_, symObjAddr: 0x13F5C, symBinAddr: 0x100015E1C, symSize: 0x50 }
  - { offset: 0x26780, size: 0x8, addend: 0x0, symName: __ZNSt3__128__exception_guard_exceptionsINS_6vectorIiNS_9allocatorIiEEE16__destroy_vectorEED2B8ne180100Ev, symObjAddr: 0x13FAC, symBinAddr: 0x100015E6C, symSize: 0x48 }
  - { offset: 0x267AA, size: 0x8, addend: 0x0, symName: __ZNSt3__16vectorIiNS_9allocatorIiEEE11__make_iterB8ne180100EPi, symObjAddr: 0x13FF4, symBinAddr: 0x100015EB4, symSize: 0x30 }
  - { offset: 0x267DF, size: 0x8, addend: 0x0, symName: __ZNSt3__111__wrap_iterIPiEC1B8ne180100ES1_, symObjAddr: 0x14024, symBinAddr: 0x100015EE4, symSize: 0x34 }
  - { offset: 0x26817, size: 0x8, addend: 0x0, symName: __ZNSt3__111__wrap_iterIPiEC2B8ne180100ES1_, symObjAddr: 0x14058, symBinAddr: 0x100015F18, symSize: 0x20 }
  - { offset: 0x2684F, size: 0x8, addend: 0x0, symName: __ZNSt3__118__unwrap_iter_implINS_11__wrap_iterIPiEELb1EE8__rewrapB8ne180100ES3_S2_, symObjAddr: 0x14178, symBinAddr: 0x100016038, symSize: 0x5C }
  - { offset: 0x26880, size: 0x8, addend: 0x0, symName: __ZNKSt3__111__wrap_iterIPiEplB8ne180100El, symObjAddr: 0x141D4, symBinAddr: 0x100016094, symSize: 0x3C }
  - { offset: 0x268C2, size: 0x8, addend: 0x0, symName: __ZNSt3__111__wrap_iterIPiEpLB8ne180100El, symObjAddr: 0x14234, symBinAddr: 0x1000160F4, symSize: 0x28 }
  - { offset: 0x26902, size: 0x8, addend: 0x0, symName: __ZNSt3__119__to_address_helperINS_11__wrap_iterIPiEEvE6__callB8ne180100ERKS3_, symObjAddr: 0x1425C, symBinAddr: 0x10001611C, symSize: 0x30 }
  - { offset: 0x26925, size: 0x8, addend: 0x0, symName: __ZNSt3__114pointer_traitsINS_11__wrap_iterIPiEEE10to_addressB8ne180100ES3_, symObjAddr: 0x1428C, symBinAddr: 0x10001614C, symSize: 0x2C }
  - { offset: 0x26948, size: 0x8, addend: 0x0, symName: __ZNKSt3__110__identityclB8ne180100IRiEEOT_S4_, symObjAddr: 0x142E4, symBinAddr: 0x1000161A4, symSize: 0x18 }
  - { offset: 0x26985, size: 0x8, addend: 0x0, symName: __ZNSt3__118__unwrap_iter_implINS_11__wrap_iterIPiEELb1EE8__unwrapB8ne180100ES3_, symObjAddr: 0x142FC, symBinAddr: 0x1000161BC, symSize: 0x28 }
  - { offset: 0x269A8, size: 0x8, addend: 0x0, symName: __ZNKSt3__16vectorINS0_IiNS_9allocatorIiEEEENS1_IS3_EEE17__annotate_shrinkB8ne180100Em, symObjAddr: 0x14324, symBinAddr: 0x1000161E4, symSize: 0x14 }
  - { offset: 0x269DD, size: 0x8, addend: 0x0, symName: __ZNSt3__16vectorINS0_IiNS_9allocatorIiEEEENS1_IS3_EEE11__make_iterB8ne180100EPS3_, symObjAddr: 0x14338, symBinAddr: 0x1000161F8, symSize: 0x30 }
  - { offset: 0x26A12, size: 0x8, addend: 0x0, symName: __ZNSt3__111__wrap_iterIPNS_6vectorIiNS_9allocatorIiEEEEEC1B8ne180100ES5_, symObjAddr: 0x14368, symBinAddr: 0x100016228, symSize: 0x34 }
  - { offset: 0x26A4A, size: 0x8, addend: 0x0, symName: __ZNSt3__111__wrap_iterIPNS_6vectorIiNS_9allocatorIiEEEEEC2B8ne180100ES5_, symObjAddr: 0x1439C, symBinAddr: 0x10001625C, symSize: 0x20 }
...
